# **************************************************************************** #
#                                                                              #
#                                                         :::      ::::::::    #
#    valgrind.supp                                      :+:      :+:    :+:    #
#                                                     +:+ +:+         +:+      #
#    By: ingonzal <ingonzal@student.42urduli>       +#+  +:+       +#+         #
#                                                 +#+#+#+#+#+   +#+            #
#    Created: 2022/08/29 20:51:13 by ingonzal          #+#    #+#              #
#    Updated: 2022/08/30 14:03:49 by ingonzal         ###   ########.fr        #
#                                                                              #
# **************************************************************************** #

{
   <mlx_suppression_rule_00>
   Memcheck:Leak
   match-leak-kinds: reachable
   fun:malloc
   fun:strdup
   fun:__si_module_static_ds_block_invoke
   fun:_dispatch_client_callout
   fun:_dispatch_once_callout
   fun:si_module_static_ds
   fun:si_module_with_name
   fun:si_module_config_modules_for_category
   fun:__si_module_static_search_block_invoke
   fun:_dispatch_client_callout
   fun:_dispatch_once_callout
   fun:si_module_static_search
}
{
   <mlx_suppression_rule_01>
   Memcheck:Leak
   match-leak-kinds: reachable
   fun:malloc
   fun:strdup
   fun:__si_module_static_mdns_block_invoke
   fun:_dispatch_client_callout
   fun:_dispatch_once_callout
   fun:si_module_static_mdns
   fun:si_module_with_name
   fun:si_module_config_modules_for_category
   fun:__si_module_static_search_block_invoke
   fun:_dispatch_client_callout
   fun:_dispatch_once_callout
   fun:si_module_static_search
}
{
   <mlx_suppression_rule_02>
   Memcheck:Leak
   match-leak-kinds: reachable
   fun:malloc
   fun:strdup
   fun:__si_module_static_file_block_invoke
   fun:_dispatch_client_callout
   fun:_dispatch_once_callout
   fun:si_module_static_file
   fun:si_module_with_name
   fun:si_module_config_modules_for_category
   fun:__si_module_static_search_block_invoke
   fun:_dispatch_client_callout
   fun:_dispatch_once_callout
   fun:si_module_static_search
}
{
   <mlx_suppression_rule_03>
   Memcheck:Leak
   match-leak-kinds: reachable
   fun:malloc
   fun:strdup
   fun:__si_module_static_cache_block_invoke
   fun:_dispatch_client_callout
   fun:_dispatch_once_callout
   fun:si_module_static_cache
   fun:si_module_with_name
   fun:si_module_config_modules_for_category
   fun:__si_module_static_search_block_invoke
   fun:_dispatch_client_callout
   fun:_dispatch_once_callout
   fun:si_module_static_search
}
{
   <mlx_suppression_rule_04>
   Memcheck:Leak
   match-leak-kinds: reachable
   fun:malloc
   fun:strdup
   fun:__si_module_static_search_block_invoke
   fun:_dispatch_client_callout
   fun:_dispatch_once_callout
   fun:si_module_static_search
   fun:si_module_with_name
   fun:si_search
   fun:getpwuid_r
   fun:__CFgetenv
   fun:__CFInitialize
   fun:_ZN16ImageLoaderMachO11doImageInitERKN11ImageLoader11LinkContextE
}
{
   <mlx_suppression_rule_05>
   Memcheck:Leak
   match-leak-kinds: reachable
   fun:malloc
   fun:_ZL33objc_initializeClassPair_internalP10objc_classPKcS0_S0_
   fun:class_setVersion
   fun:__CFDictionaryCreateGeneric
   fun:_CFStringGetUserDefaultEncoding
   fun:_ZN16ImageLoaderMachO11doImageInitERKN11ImageLoader11LinkContextE
   fun:_ZN16ImageLoaderMachO16doInitializationERKN11ImageLoader11LinkContextE
   fun:_ZN11ImageLoader23recursiveInitializationERKNS_11LinkContextEjPKcRNS_21InitializerTimingListERNS_15UninitedUpwardsE
   fun:_ZN11ImageLoader23recursiveInitializationERKNS_11LinkContextEjPKcRNS_21InitializerTimingListERNS_15UninitedUpwardsE
   fun:_ZN11ImageLoader23recursiveInitializationERKNS_11LinkContextEjPKcRNS_21InitializerTimingListERNS_15UninitedUpwardsE
   fun:_ZN11ImageLoader23recursiveInitializationERKNS_11LinkContextEjPKcRNS_21InitializerTimingListERNS_15UninitedUpwardsE
   fun:_ZN11ImageLoader23recursiveInitializationERKNS_11LinkContextEjPKcRNS_21InitializerTimingListERNS_15UninitedUpwardsE
}
{
   <mlx_suppression_rule_06>
   Memcheck:Leak
   match-leak-kinds: reachable
   fun:calloc
   fun:si_module_config_modules_for_category
   fun:__si_module_static_search_block_invoke
   fun:_dispatch_client_callout
   fun:_dispatch_once_callout
   fun:si_module_static_search
   fun:si_module_with_name
   fun:si_search
   fun:getpwuid_r
   fun:__CFgetenv
   fun:__CFInitialize
   fun:_ZN16ImageLoaderMachO11doImageInitERKN11ImageLoader11LinkContextE
}
{
   <mlx_suppression_rule_07>
   Memcheck:Leak
   match-leak-kinds: reachable
   fun:calloc
   fun:__si_module_static_ds_block_invoke
   fun:_dispatch_client_callout
   fun:_dispatch_once_callout
   fun:si_module_static_ds
   fun:si_module_with_name
   fun:si_module_config_modules_for_category
   fun:__si_module_static_search_block_invoke
   fun:_dispatch_client_callout
   fun:_dispatch_once_callout
   fun:si_module_static_search
   fun:si_module_with_name
}
{
   <mlx_suppression_rule_08>
   Memcheck:Leak
   match-leak-kinds: reachable
   fun:calloc
   fun:_ZNK8method_t11remappedImpEb
   fun:_ZN13list_array_ttI10property_t15property_list_t6RawPtrE11attachListsEPKPS1_j
   fun:_ZNK13method_list_t9duplicateEv
   fun:_ZN10class_rw_t8extAllocEPK10class_ro_tb
   fun:_ZN10class_rw_t8extAllocEPK10class_ro_tb
   fun:_ZN10class_rw_t8extAllocEPK10class_ro_tb
   fun:_ZL24realizeClassWithoutSwiftP10objc_classS0_
   fun:-[NSObject dealloc]
   fun:lookUpImpOrForward
   fun:_xpc_pipe_routine
   fun:xpc_pipe_routine_with_flags
}
{
   <mlx_suppression_rule_09>
   Memcheck:Leak
   match-leak-kinds: possible
   fun:malloc
   fun:_ZL24realizeClassWithoutSwiftP10objc_classS0_
   fun:_ZL32adjustCustomFlagsForMethodChangeP10objc_classP8method_t
   fun:property_copyAttributeValue
   fun:_ZL10free_classP10objc_class
   fun:objc_msgLookup
   fun:_ZN4dyldL12notifySingleE17dyld_image_statesPK11ImageLoaderPNS1_21InitializerTimingListE
   fun:_ZN11ImageLoader23recursiveInitializationERKNS_11LinkContextEjPKcRNS_21InitializerTimingListERNS_15UninitedUpwardsE
   fun:_ZN11ImageLoader19processInitializersERKNS_11LinkContextEjRNS_21InitializerTimingListERNS_15UninitedUpwardsE
   fun:_ZN11ImageLoader19processInitializersERKNS_11LinkContextEjRNS_21InitializerTimingListERNS_15UninitedUpwardsE
   fun:_ZN11ImageLoader15runInitializersERKNS_11LinkContextERNS_21InitializerTimingListE
   fun:_ZN4dyld24initializeMainExecutableEv
}
{
   <mlx_suppression_rule_10>
   Memcheck:Leak
   match-leak-kinds: indirect
   fun:malloc
   fun:_ZL24realizeClassWithoutSwiftP10objc_classS0_
   fun:_ZL32adjustCustomFlagsForMethodChangeP10objc_classP8method_t
   fun:property_copyAttributeValue
   fun:_ZL10free_classP10objc_class
   fun:objc_msgLookup
   fun:_ZN4dyldL12notifySingleE17dyld_image_statesPK11ImageLoaderPNS1_21InitializerTimingListE
   fun:_ZN11ImageLoader23recursiveInitializationERKNS_11LinkContextEjPKcRNS_21InitializerTimingListERNS_15UninitedUpwardsE
   fun:_ZN11ImageLoader19processInitializersERKNS_11LinkContextEjRNS_21InitializerTimingListERNS_15UninitedUpwardsE
   fun:_ZN11ImageLoader19processInitializersERKNS_11LinkContextEjRNS_21InitializerTimingListERNS_15UninitedUpwardsE
   fun:_ZN11ImageLoader15runInitializersERKNS_11LinkContextERNS_21InitializerTimingListE
   fun:_ZN4dyld24initializeMainExecutableEv
}
{
   <mlx_suppression_rule_011>
   Memcheck:Leak
   match-leak-kinds: indirect
   fun:malloc
   fun:_ZL24realizeClassWithoutSwiftP10objc_classS0_
   fun:_ZL32adjustCustomFlagsForMethodChangeP10objc_classP8method_t
   fun:_ZL32adjustCustomFlagsForMethodChangeP10objc_classP8method_t
   fun:_ZL16attachCategoriesP10objc_classPK21locstamped_category_tji
   fun:_ZN10objc_class11mangledNameEv
   fun:_ZL16addRemappedClassP10objc_classS0_
   fun:objc_initializeClassPair
   fun:objc_registerClassPair
   fun:__CFStringCreateImmutableFunnel3
   fun:__CFInitialize
   fun:_ZN16ImageLoaderMachO11doImageInitERKN11ImageLoader11LinkContextE
}
{
   <mlx_suppression_rule_012>
   Memcheck:Leak
   match-leak-kinds: indirect
   fun:malloc
   fun:_ZL24realizeClassWithoutSwiftP10objc_classS0_
   fun:_ZL32adjustCustomFlagsForMethodChangeP10objc_classP8method_t
   fun:_ZL32adjustCustomFlagsForMethodChangeP10objc_classP8method_t
   fun:_ZL16attachCategoriesP10objc_classPK21locstamped_category_tji
   fun:_ZL16addRemappedClassP10objc_classS0_
   fun:objc_initializeClassPair
   fun:objc_registerClassPair
   fun:__CFStringCreateImmutableFunnel3
   fun:__CFInitialize
   fun:_ZN16ImageLoaderMachO11doImageInitERKN11ImageLoader11LinkContextE
   fun:_ZN16ImageLoaderMachO16doInitializationERKN11ImageLoader11LinkContextE
}
{
   <mlx_suppression_rule_013>
   Memcheck:Leak
   match-leak-kinds: indirect
   fun:malloc
   fun:_ZL24realizeClassWithoutSwiftP10objc_classS0_
   fun:_ZL32adjustCustomFlagsForMethodChangeP10objc_classP8method_t
   fun:_ZL32adjustCustomFlagsForMethodChangeP10objc_classP8method_t
   fun:_ZL16attachCategoriesP10objc_classPK21locstamped_category_tji
   fun:_ZN10objc_class11mangledNameEv
   fun:_ZN10objc_class11mangledNameEv
   fun:_ZL16addRemappedClassP10objc_classS0_
   fun:objc_initializeClassPair
   fun:objc_registerClassPair
   fun:__CFStringCreateImmutableFunnel3
   fun:__CFInitialize
}
{
   <mlx_suppression_rule_014>
   Memcheck:Leak
   match-leak-kinds: indirect
   fun:malloc
   fun:_ZL24realizeClassWithoutSwiftP10objc_classS0_
   fun:_ZL32adjustCustomFlagsForMethodChangeP10objc_classP8method_t
   fun:_ZL32adjustCustomFlagsForMethodChangeP10objc_classP8method_t
   fun:_ZL16attachCategoriesP10objc_classPK21locstamped_category_tji
   fun:_ZN10objc_class11mangledNameEv
   fun:_ZN10objc_class11mangledNameEv
   fun:_ZL16addRemappedClassP10objc_classS0_
   fun:objc_initializeClassPair
   fun:objc_registerClassPair
   fun:__CFStringCreateImmutableFunnel3
   fun:__CFInitialize
}
{
   <mlx_suppression_rule_015>
   Memcheck:Leak
   match-leak-kinds: indirect
   fun:malloc
   fun:_ZL24realizeClassWithoutSwiftP10objc_classS0_
   fun:_ZL32adjustCustomFlagsForMethodChangeP10objc_classP8method_t
   fun:_ZL32adjustCustomFlagsForMethodChangeP10objc_classP8method_t
   fun:_ZL16attachCategoriesP10objc_classPK21locstamped_category_tji
   fun:_ZN10objc_class11mangledNameEv
   fun:_ZL16addRemappedClassP10objc_classS0_
   fun:objc_initializeClassPair
   fun:objc_registerClassPair
   fun:__CFStringCreateImmutableFunnel3
   fun:__CFInitialize
   fun:_ZN16ImageLoaderMachO11doImageInitERKN11ImageLoader11LinkContextE
}
{
   <mlx_suppression_rule_016>
   Memcheck:Leak
   match-leak-kinds: indirect
   fun:malloc
   fun:_ZL24realizeClassWithoutSwiftP10objc_classS0_
   fun:_ZL32adjustCustomFlagsForMethodChangeP10objc_classP8method_t
   fun:_ZL32adjustCustomFlagsForMethodChangeP10objc_classP8method_t
   fun:_ZL16attachCategoriesP10objc_classPK21locstamped_category_tji
   fun:_ZN10objc_class11mangledNameEv
   fun:_ZL16addRemappedClassP10objc_classS0_
   fun:objc_initializeClassPair
   fun:objc_registerClassPair
   fun:__CFStringCreateImmutableFunnel3
   fun:__CFInitialize
   fun:_ZN16ImageLoaderMachO11doImageInitERKN11ImageLoader11LinkContextE
}
{
   <mlx_suppression_rule_017>
   Memcheck:Leak
   match-leak-kinds: indirect
   fun:malloc
   fun:_ZL24realizeClassWithoutSwiftP10objc_classS0_
   fun:_ZL32adjustCustomFlagsForMethodChangeP10objc_classP8method_t
   fun:_ZL32adjustCustomFlagsForMethodChangeP10objc_classP8method_t
   fun:_ZL16attachCategoriesP10objc_classPK21locstamped_category_tji
   fun:_ZN10objc_class11mangledNameEv
   fun:_ZL16addRemappedClassP10objc_classS0_
   fun:objc_initializeClassPair
   fun:objc_registerClassPair
   fun:__CFStringCreateImmutableFunnel3
   fun:__CFInitializeLinkCheck
   fun:_ZN16ImageLoaderMachO11doImageInitERKN11ImageLoader11LinkContextE
}
{
   <mlx_suppression_rule_018>
   Memcheck:Leak
   match-leak-kinds: indirect
   fun:malloc
   fun:_ZL24realizeClassWithoutSwiftP10objc_classS0_
   fun:_ZL32adjustCustomFlagsForMethodChangeP10objc_classP8method_t
   fun:_ZL32adjustCustomFlagsForMethodChangeP10objc_classP8method_t
   fun:_ZL16attachCategoriesP10objc_classPK21locstamped_category_tji
   fun:_ZL16addRemappedClassP10objc_classS0_
   fun:objc_initializeClassPair
   fun:_NSToDoAtProcessStart
   fun:_NSInitializePlatform
   fun:objc_msgLookup_fpret
   fun:_ZN4dyldL12notifySingleE17dyld_image_statesPK11ImageLoaderPNS1_21InitializerTimingListE
   fun:_ZN11ImageLoader23recursiveInitializationERKNS_11LinkContextEjPKcRNS_21InitializerTimingListERNS_15UninitedUpwardsE
}
{
   <mlx_suppression_rule_019>
   Memcheck:Leak
   match-leak-kinds: indirect
   fun:malloc
   fun:_ZL24realizeClassWithoutSwiftP10objc_classS0_
   fun:_ZL32adjustCustomFlagsForMethodChangeP10objc_classP8method_t
   fun:_ZL32adjustCustomFlagsForMethodChangeP10objc_classP8method_t
   fun:_ZL16attachCategoriesP10objc_classPK21locstamped_category_tji
   fun:_ZL16addRemappedClassP10objc_classS0_
   fun:objc_initializeClassPair
   fun:_NSToDoAtProcessStart
   fun:_NSInitializePlatform
   fun:objc_msgLookup_fpret
   fun:_ZN4dyldL12notifySingleE17dyld_image_statesPK11ImageLoaderPNS1_21InitializerTimingListE
   fun:_ZN11ImageLoader23recursiveInitializationERKNS_11LinkContextEjPKcRNS_21InitializerTimingListERNS_15UninitedUpwardsE
}
{
   <mlx_suppression_rule_020>
   Memcheck:Leak
   match-leak-kinds: indirect
   fun:malloc
   fun:_ZL24realizeClassWithoutSwiftP10objc_classS0_
   fun:_ZL32adjustCustomFlagsForMethodChangeP10objc_classP8method_t
   fun:_ZL32adjustCustomFlagsForMethodChangeP10objc_classP8method_t
   fun:_ZL16attachCategoriesP10objc_classPK21locstamped_category_tji
   fun:_ZN10objc_class11mangledNameEv
   fun:_ZN10objc_class11mangledNameEv
   fun:_ZL16addRemappedClassP10objc_classS0_
   fun:objc_initializeClassPair
   fun:_NSToDoAtProcessStart
   fun:_NSInitializePlatform
   fun:objc_msgLookup_fpret
}
{
   <mlx_suppression_rule_021>
   Memcheck:Leak
   match-leak-kinds: indirect
   fun:malloc
   fun:_ZL24realizeClassWithoutSwiftP10objc_classS0_
   fun:_ZL32adjustCustomFlagsForMethodChangeP10objc_classP8method_t
   fun:_ZL32adjustCustomFlagsForMethodChangeP10objc_classP8method_t
   fun:_ZL16attachCategoriesP10objc_classPK21locstamped_category_tji
   fun:_ZN10objc_class11mangledNameEv
   fun:_ZL16addRemappedClassP10objc_classS0_
   fun:objc_initializeClassPair
   fun:_NSToDoAtProcessStart
   fun:_NSInitializePlatform
   fun:objc_msgLookup_fpret
   fun:_ZN4dyldL12notifySingleE17dyld_image_statesPK11ImageLoaderPNS1_21InitializerTimingListE
}
{
   <mlx_suppression_rule_022>
   Memcheck:Leak
   match-leak-kinds: indirect
   fun:malloc
   fun:_ZL24realizeClassWithoutSwiftP10objc_classS0_
   fun:_ZL32adjustCustomFlagsForMethodChangeP10objc_classP8method_t
   fun:_ZL32adjustCustomFlagsForMethodChangeP10objc_classP8method_t
   fun:_ZL16attachCategoriesP10objc_classPK21locstamped_category_tji
   fun:_ZN10objc_class11mangledNameEv
   fun:_ZL16addRemappedClassP10objc_classS0_
   fun:objc_initializeClassPair
   fun:_NSToDoAtProcessStart
   fun:_NSInitializePlatform
   fun:objc_msgLookup_fpret
   fun:_ZN4dyldL12notifySingleE17dyld_image_statesPK11ImageLoaderPNS1_21InitializerTimingListE
}
{
   <mlx_suppression_rule_023>
   Memcheck:Leak
   match-leak-kinds: indirect
   fun:malloc
   fun:_ZL24realizeClassWithoutSwiftP10objc_classS0_
   fun:_ZL32adjustCustomFlagsForMethodChangeP10objc_classP8method_t
   fun:_ZL32adjustCustomFlagsForMethodChangeP10objc_classP8method_t
   fun:_ZL16attachCategoriesP10objc_classPK21locstamped_category_tji
   fun:_ZN10objc_class11mangledNameEv
   fun:_ZL16addRemappedClassP10objc_classS0_
   fun:objc_initializeClassPair
   fun:_NSToDoAtProcessStart
   fun:_NSInitializePlatform
   fun:objc_msgLookup_fpret
   fun:_ZN4dyldL12notifySingleE17dyld_image_statesPK11ImageLoaderPNS1_21InitializerTimingListE
}
{
   <mlx_suppression_rule_024>
   Memcheck:Leak
   match-leak-kinds: indirect
   fun:malloc
   fun:_ZL24realizeClassWithoutSwiftP10objc_classS0_
   fun:_ZL32adjustCustomFlagsForMethodChangeP10objc_classP8method_t
   fun:_ZL32adjustCustomFlagsForMethodChangeP10objc_classP8method_t
   fun:_ZL16attachCategoriesP10objc_classPK21locstamped_category_tji
   fun:_ZN10objc_class11mangledNameEv
   fun:_ZL16addRemappedClassP10objc_classS0_
   fun:objc_initializeClassPair
   fun:_NSToDoAtProcessStart
   fun:_NSInitializePlatform
   fun:objc_msgLookup_fpret
   fun:_ZN4dyldL12notifySingleE17dyld_image_statesPK11ImageLoaderPNS1_21InitializerTimingListE
}
{
   <mlx_suppression_rule_025>
   Memcheck:Leak
   match-leak-kinds: indirect
   fun:malloc
   fun:_ZL24realizeClassWithoutSwiftP10objc_classS0_
   fun:_ZL32adjustCustomFlagsForMethodChangeP10objc_classP8method_t
   fun:_ZL32adjustCustomFlagsForMethodChangeP10objc_classP8method_t
   fun:_ZL16attachCategoriesP10objc_classPK21locstamped_category_tji
   fun:_ZL16addRemappedClassP10objc_classS0_
   fun:objc_initializeClassPair
   fun:_NSToDoAtProcessStart
   fun:_NSInitializePlatform
   fun:objc_msgLookup_fpret
   fun:_ZN4dyldL12notifySingleE17dyld_image_statesPK11ImageLoaderPNS1_21InitializerTimingListE
   fun:_ZN11ImageLoader23recursiveInitializationERKNS_11LinkContextEjPKcRNS_21InitializerTimingListERNS_15UninitedUpwardsE
}
{
   <mlx_suppression_rule_026>
   Memcheck:Leak
   match-leak-kinds: indirect
   fun:malloc_zone_calloc
   fun:__CFBasicHashRehash
   fun:__CFBasicHashAddValue
   fun:CFBasicHashSetValue
   fun:____NSThreads_block_invoke
   fun:_dispatch_client_callout
   fun:_dispatch_once_callout
   fun:_NSThreadGet0
   fun:_NSInitializePlatform
   fun:objc_msgLookup_fpret
   fun:_ZN4dyldL12notifySingleE17dyld_image_statesPK11ImageLoaderPNS1_21InitializerTimingListE
   fun:_ZN11ImageLoader23recursiveInitializationERKNS_11LinkContextEjPKcRNS_21InitializerTimingListERNS_15UninitedUpwardsE
}
{
   <mlx_suppression_rule_027>
   Memcheck:Leak
   match-leak-kinds: indirect
   fun:malloc_zone_calloc
   fun:__CFBasicHashRehash
   fun:__CFBasicHashAddValue
   fun:CFBasicHashSetValue
   fun:____NSThreads_block_invoke
   fun:_dispatch_client_callout
   fun:_dispatch_once_callout
   fun:_NSThreadGet0
   fun:_NSInitializePlatform
   fun:objc_msgLookup_fpret
   fun:_ZN4dyldL12notifySingleE17dyld_image_statesPK11ImageLoaderPNS1_21InitializerTimingListE
   fun:_ZN11ImageLoader23recursiveInitializationERKNS_11LinkContextEjPKcRNS_21InitializerTimingListERNS_15UninitedUpwardsE
}
{
   <mlx_suppression_rule_028>
   Memcheck:Leak
   match-leak-kinds: reachable
   fun:calloc
   fun:si_module_config_modules_for_category
   fun:__si_module_static_search_block_invoke
   fun:_dispatch_client_callout
   fun:_dispatch_once_callout
   fun:si_module_static_search
   fun:si_module_with_name
   fun:si_search
   fun:getpwuid_r
   fun:__CFgetenv
   fun:__CFInitialize
   fun:_ZN16ImageLoaderMachO11doImageInitERKN11ImageLoader11LinkContextE
}
{
   <mlx_suppression_rule_029>
   Memcheck:Leak
   match-leak-kinds: reachable
   fun:calloc
   fun:_ZL27method_t_remappedImp_nolockPK8method_t
   fun:_ZN13list_array_ttI10property_t15property_list_t6RawPtrE11attachListsEPKPS1_j
   fun:_ZNK13method_list_t9duplicateEv
   fun:_ZN10class_rw_t8extAllocEPK10class_ro_tb
   fun:_ZN10class_rw_t8extAllocEPK10class_ro_tb
   fun:_ZN10class_rw_t8extAllocEPK10class_ro_tb
   fun:_ZL24realizeClassWithoutSwiftP10objc_classS0_
   fun:-[NSObject dealloc]
   fun:lookUpImpOrForward
   fun:_xpc_pipe_routine
   fun:xpc_pipe_routine_with_flags
}
{
   <mlx_suppression_rule_030>
   Memcheck:Leak
   match-leak-kinds: reachable
   fun:calloc
   fun:object_getIndexedIvars
   fun:+[NSObject new]
   fun:__CFDictionaryCreateGeneric
   fun:_CFStringGetUserDefaultEncoding
   fun:_ZN16ImageLoaderMachO11doImageInitERKN11ImageLoader11LinkContextE
   fun:_ZN16ImageLoaderMachO16doInitializationERKN11ImageLoader11LinkContextE
   fun:_ZN11ImageLoader23recursiveInitializationERKNS_11LinkContextEjPKcRNS_21InitializerTimingListERNS_15UninitedUpwardsE
   fun:_ZN11ImageLoader23recursiveInitializationERKNS_11LinkContextEjPKcRNS_21InitializerTimingListERNS_15UninitedUpwardsE
   fun:_ZN11ImageLoader23recursiveInitializationERKNS_11LinkContextEjPKcRNS_21InitializerTimingListERNS_15UninitedUpwardsE
   fun:_ZN11ImageLoader23recursiveInitializationERKNS_11LinkContextEjPKcRNS_21InitializerTimingListERNS_15UninitedUpwardsE
   fun:_ZN11ImageLoader23recursiveInitializationERKNS_11LinkContextEjPKcRNS_21InitializerTimingListERNS_15UninitedUpwardsE
}
{
   <mlx_suppression_rule_031>
   Memcheck:Leak
   match-leak-kinds: reachable
   fun:calloc
   fun:object_getIndexedIvars
   fun:+[NSObject new]
   fun:__CFDictionaryCreateGeneric
   fun:_CFStringGetUserDefaultEncoding
   fun:_ZN16ImageLoaderMachO11doImageInitERKN11ImageLoader11LinkContextE
   fun:_ZN16ImageLoaderMachO16doInitializationERKN11ImageLoader11LinkContextE
   fun:_ZN11ImageLoader23recursiveInitializationERKNS_11LinkContextEjPKcRNS_21InitializerTimingListERNS_15UninitedUpwardsE
   fun:_ZN11ImageLoader23recursiveInitializationERKNS_11LinkContextEjPKcRNS_21InitializerTimingListERNS_15UninitedUpwardsE
   fun:_ZN11ImageLoader23recursiveInitializationERKNS_11LinkContextEjPKcRNS_21InitializerTimingListERNS_15UninitedUpwardsE
   fun:_ZN11ImageLoader23recursiveInitializationERKNS_11LinkContextEjPKcRNS_21InitializerTimingListERNS_15UninitedUpwardsE
   fun:_ZN11ImageLoader23recursiveInitializationERKNS_11LinkContextEjPKcRNS_21InitializerTimingListERNS_15UninitedUpwardsE
}
{
   <mlx_suppression_rule_032>
   Memcheck:Leak
   match-leak-kinds: reachable
   fun:calloc
   fun:object_getIndexedIvars
   fun:+[NSObject new]
   fun:__CFDictionaryCreateGeneric
   fun:_CFStringGetUserDefaultEncoding
   fun:_ZN16ImageLoaderMachO11doImageInitERKN11ImageLoader11LinkContextE
   fun:_ZN16ImageLoaderMachO16doInitializationERKN11ImageLoader11LinkContextE
   fun:_ZN11ImageLoader23recursiveInitializationERKNS_11LinkContextEjPKcRNS_21InitializerTimingListERNS_15UninitedUpwardsE
   fun:_ZN11ImageLoader23recursiveInitializationERKNS_11LinkContextEjPKcRNS_21InitializerTimingListERNS_15UninitedUpwardsE
   fun:_ZN11ImageLoader23recursiveInitializationERKNS_11LinkContextEjPKcRNS_21InitializerTimingListERNS_15UninitedUpwardsE
   fun:_ZN11ImageLoader23recursiveInitializationERKNS_11LinkContextEjPKcRNS_21InitializerTimingListERNS_15UninitedUpwardsE
   fun:_ZN11ImageLoader23recursiveInitializationERKNS_11LinkContextEjPKcRNS_21InitializerTimingListERNS_15UninitedUpwardsE
}
{
   <mlx_suppression_rule_033>
   Memcheck:Leak
   match-leak-kinds: reachable
   fun:calloc
   fun:object_getIndexedIvars
   fun:+[NSObject new]
   fun:__CFDictionaryCreateGeneric
   fun:_CFStringGetUserDefaultEncoding
   fun:_ZN16ImageLoaderMachO11doImageInitERKN11ImageLoader11LinkContextE
   fun:_ZN16ImageLoaderMachO16doInitializationERKN11ImageLoader11LinkContextE
   fun:_ZN11ImageLoader23recursiveInitializationERKNS_11LinkContextEjPKcRNS_21InitializerTimingListERNS_15UninitedUpwardsE
   fun:_ZN11ImageLoader23recursiveInitializationERKNS_11LinkContextEjPKcRNS_21InitializerTimingListERNS_15UninitedUpwardsE
   fun:_ZN11ImageLoader23recursiveInitializationERKNS_11LinkContextEjPKcRNS_21InitializerTimingListERNS_15UninitedUpwardsE
   fun:_ZN11ImageLoader23recursiveInitializationERKNS_11LinkContextEjPKcRNS_21InitializerTimingListERNS_15UninitedUpwardsE
   fun:_ZN11ImageLoader23recursiveInitializationERKNS_11LinkContextEjPKcRNS_21InitializerTimingListERNS_15UninitedUpwardsE
}
{
   <mlx_suppression_rule_034>
   Memcheck:Leak
   match-leak-kinds: reachable
   fun:calloc
   fun:object_getIndexedIvars
   fun:+[NSObject new]
   fun:__CFDictionaryCreateGeneric
   fun:_CFStringGetUserDefaultEncoding
   fun:_ZN16ImageLoaderMachO11doImageInitERKN11ImageLoader11LinkContextE
   fun:_ZN16ImageLoaderMachO16doInitializationERKN11ImageLoader11LinkContextE
   fun:_ZN11ImageLoader23recursiveInitializationERKNS_11LinkContextEjPKcRNS_21InitializerTimingListERNS_15UninitedUpwardsE
   fun:_ZN11ImageLoader23recursiveInitializationERKNS_11LinkContextEjPKcRNS_21InitializerTimingListERNS_15UninitedUpwardsE
   fun:_ZN11ImageLoader23recursiveInitializationERKNS_11LinkContextEjPKcRNS_21InitializerTimingListERNS_15UninitedUpwardsE
   fun:_ZN11ImageLoader23recursiveInitializationERKNS_11LinkContextEjPKcRNS_21InitializerTimingListERNS_15UninitedUpwardsE
   fun:_ZN11ImageLoader23recursiveInitializationERKNS_11LinkContextEjPKcRNS_21InitializerTimingListERNS_15UninitedUpwardsE
}
{
   <mlx_suppression_rule_035>
   Memcheck:Leak
   match-leak-kinds: reachable
   fun:calloc
   fun:object_getIndexedIvars
   fun:+[NSObject new]
   fun:__CFDictionaryCreateGeneric
   fun:_CFStringGetUserDefaultEncoding
   fun:_ZN16ImageLoaderMachO11doImageInitERKN11ImageLoader11LinkContextE
   fun:_ZN16ImageLoaderMachO16doInitializationERKN11ImageLoader11LinkContextE
   fun:_ZN11ImageLoader23recursiveInitializationERKNS_11LinkContextEjPKcRNS_21InitializerTimingListERNS_15UninitedUpwardsE
   fun:_ZN11ImageLoader23recursiveInitializationERKNS_11LinkContextEjPKcRNS_21InitializerTimingListERNS_15UninitedUpwardsE
   fun:_ZN11ImageLoader23recursiveInitializationERKNS_11LinkContextEjPKcRNS_21InitializerTimingListERNS_15UninitedUpwardsE
   fun:_ZN11ImageLoader23recursiveInitializationERKNS_11LinkContextEjPKcRNS_21InitializerTimingListERNS_15UninitedUpwardsE
   fun:_ZN11ImageLoader23recursiveInitializationERKNS_11LinkContextEjPKcRNS_21InitializerTimingListERNS_15UninitedUpwardsE
}
{
   <mlx_suppression_rule_036>
   Memcheck:Leak
   match-leak-kinds: reachable
   fun:calloc
   fun:object_getIndexedIvars
   fun:+[NSObject new]
   fun:__CFDictionaryCreateGeneric
   fun:_CFStringGetUserDefaultEncoding
   fun:_ZN16ImageLoaderMachO11doImageInitERKN11ImageLoader11LinkContextE
   fun:_ZN16ImageLoaderMachO16doInitializationERKN11ImageLoader11LinkContextE
   fun:_ZN11ImageLoader23recursiveInitializationERKNS_11LinkContextEjPKcRNS_21InitializerTimingListERNS_15UninitedUpwardsE
   fun:_ZN11ImageLoader23recursiveInitializationERKNS_11LinkContextEjPKcRNS_21InitializerTimingListERNS_15UninitedUpwardsE
   fun:_ZN11ImageLoader23recursiveInitializationERKNS_11LinkContextEjPKcRNS_21InitializerTimingListERNS_15UninitedUpwardsE
   fun:_ZN11ImageLoader23recursiveInitializationERKNS_11LinkContextEjPKcRNS_21InitializerTimingListERNS_15UninitedUpwardsE
   fun:_ZN11ImageLoader23recursiveInitializationERKNS_11LinkContextEjPKcRNS_21InitializerTimingListERNS_15UninitedUpwardsE
}
{
   <mlx_suppression_rule_037>
   Memcheck:Leak
   match-leak-kinds: reachable
   fun:calloc
   fun:object_getIndexedIvars
   fun:+[NSObject new]
   fun:__CFDictionaryCreateGeneric
   fun:_CFStringGetUserDefaultEncoding
   fun:_ZN16ImageLoaderMachO11doImageInitERKN11ImageLoader11LinkContextE
   fun:_ZN16ImageLoaderMachO16doInitializationERKN11ImageLoader11LinkContextE
   fun:_ZN11ImageLoader23recursiveInitializationERKNS_11LinkContextEjPKcRNS_21InitializerTimingListERNS_15UninitedUpwardsE
   fun:_ZN11ImageLoader23recursiveInitializationERKNS_11LinkContextEjPKcRNS_21InitializerTimingListERNS_15UninitedUpwardsE
   fun:_ZN11ImageLoader23recursiveInitializationERKNS_11LinkContextEjPKcRNS_21InitializerTimingListERNS_15UninitedUpwardsE
   fun:_ZN11ImageLoader23recursiveInitializationERKNS_11LinkContextEjPKcRNS_21InitializerTimingListERNS_15UninitedUpwardsE
   fun:_ZN11ImageLoader23recursiveInitializationERKNS_11LinkContextEjPKcRNS_21InitializerTimingListERNS_15UninitedUpwardsE
}
{
   <mlx_suppression_rule_038>
   Memcheck:Leak
   match-leak-kinds: reachable
   fun:calloc
   fun:object_getIndexedIvars
   fun:+[NSObject new]
   fun:CFBasicHashCreate
   fun:_CFStringGetUserDefaultEncoding
   fun:_ZN16ImageLoaderMachO11doImageInitERKN11ImageLoader11LinkContextE
   fun:_ZN16ImageLoaderMachO16doInitializationERKN11ImageLoader11LinkContextE
   fun:_ZN11ImageLoader23recursiveInitializationERKNS_11LinkContextEjPKcRNS_21InitializerTimingListERNS_15UninitedUpwardsE
   fun:_ZN11ImageLoader23recursiveInitializationERKNS_11LinkContextEjPKcRNS_21InitializerTimingListERNS_15UninitedUpwardsE
   fun:_ZN11ImageLoader23recursiveInitializationERKNS_11LinkContextEjPKcRNS_21InitializerTimingListERNS_15UninitedUpwardsE
   fun:_ZN11ImageLoader23recursiveInitializationERKNS_11LinkContextEjPKcRNS_21InitializerTimingListERNS_15UninitedUpwardsE
   fun:_ZN11ImageLoader23recursiveInitializationERKNS_11LinkContextEjPKcRNS_21InitializerTimingListERNS_15UninitedUpwardsE
}
{
   <mlx_suppression_rule_039>
   Memcheck:Leak
   match-leak-kinds: reachable
   fun:calloc
   fun:object_getIndexedIvars
   fun:+[NSObject new]
   fun:CFBasicHashCreate
   fun:_CFStringGetUserDefaultEncoding
   fun:_ZN16ImageLoaderMachO11doImageInitERKN11ImageLoader11LinkContextE
   fun:_ZN16ImageLoaderMachO16doInitializationERKN11ImageLoader11LinkContextE
   fun:_ZN11ImageLoader23recursiveInitializationERKNS_11LinkContextEjPKcRNS_21InitializerTimingListERNS_15UninitedUpwardsE
   fun:_ZN11ImageLoader23recursiveInitializationERKNS_11LinkContextEjPKcRNS_21InitializerTimingListERNS_15UninitedUpwardsE
   fun:_ZN11ImageLoader23recursiveInitializationERKNS_11LinkContextEjPKcRNS_21InitializerTimingListERNS_15UninitedUpwardsE
   fun:_ZN11ImageLoader23recursiveInitializationERKNS_11LinkContextEjPKcRNS_21InitializerTimingListERNS_15UninitedUpwardsE
   fun:_ZN11ImageLoader23recursiveInitializationERKNS_11LinkContextEjPKcRNS_21InitializerTimingListERNS_15UninitedUpwardsE
}
{
   <mlx_suppression_rule_040>
   Memcheck:Leak
   match-leak-kinds: reachable
   fun:calloc
   fun:object_getIndexedIvars
   fun:+[NSObject new]
   fun:CFBasicHashCreate
   fun:_CFStringGetUserDefaultEncoding
   fun:_ZN16ImageLoaderMachO11doImageInitERKN11ImageLoader11LinkContextE
   fun:_ZN16ImageLoaderMachO16doInitializationERKN11ImageLoader11LinkContextE
   fun:_ZN11ImageLoader23recursiveInitializationERKNS_11LinkContextEjPKcRNS_21InitializerTimingListERNS_15UninitedUpwardsE
   fun:_ZN11ImageLoader23recursiveInitializationERKNS_11LinkContextEjPKcRNS_21InitializerTimingListERNS_15UninitedUpwardsE
   fun:_ZN11ImageLoader23recursiveInitializationERKNS_11LinkContextEjPKcRNS_21InitializerTimingListERNS_15UninitedUpwardsE
   fun:_ZN11ImageLoader23recursiveInitializationERKNS_11LinkContextEjPKcRNS_21InitializerTimingListERNS_15UninitedUpwardsE
   fun:_ZN11ImageLoader23recursiveInitializationERKNS_11LinkContextEjPKcRNS_21InitializerTimingListERNS_15UninitedUpwardsE
}
{
   <mlx_suppression_rule_041>
   Memcheck:Leak
   match-leak-kinds: reachable
   fun:calloc
   fun:object_getIndexedIvars
   fun:+[NSObject new]
   fun:CFBasicHashCreate
   fun:_CFStringGetUserDefaultEncoding
   fun:_ZN16ImageLoaderMachO11doImageInitERKN11ImageLoader11LinkContextE
   fun:_ZN16ImageLoaderMachO16doInitializationERKN11ImageLoader11LinkContextE
   fun:_ZN11ImageLoader23recursiveInitializationERKNS_11LinkContextEjPKcRNS_21InitializerTimingListERNS_15UninitedUpwardsE
   fun:_ZN11ImageLoader23recursiveInitializationERKNS_11LinkContextEjPKcRNS_21InitializerTimingListERNS_15UninitedUpwardsE
   fun:_ZN11ImageLoader23recursiveInitializationERKNS_11LinkContextEjPKcRNS_21InitializerTimingListERNS_15UninitedUpwardsE
   fun:_ZN11ImageLoader23recursiveInitializationERKNS_11LinkContextEjPKcRNS_21InitializerTimingListERNS_15UninitedUpwardsE
   fun:_ZN11ImageLoader23recursiveInitializationERKNS_11LinkContextEjPKcRNS_21InitializerTimingListERNS_15UninitedUpwardsE
}
{
   <mlx_suppression_rule_042>
   Memcheck:Leak
   match-leak-kinds: reachable
   fun:calloc
   fun:objc_msgSend_stret
   fun:CFStringEncodingGetConverter
   fun:CFBasicHashSetValue
   fun:-[NSThread init]
   fun:____NSThreads_block_invoke
   fun:_dispatch_client_callout
   fun:_dispatch_once_callout
   fun:_NSThreadGet0
   fun:_NSInitializePlatform
   fun:objc_msgLookup_fpret
   fun:_ZN4dyldL12notifySingleE17dyld_image_statesPK11ImageLoaderPNS1_21InitializerTimingListE
}
{
   <mlx_suppression_rule_043>
   Memcheck:Leak
   match-leak-kinds: reachable
   fun:calloc
   fun:_ZN4objc8DenseMapIP10objc_classS2_NS_17DenseMapValueInfoIS2_EENS_12DenseMapInfoIS2_EENS_6detail12DenseMapPairIS2_S2_EEE4growEj
   fun:objc_msgSendSuper2
   fun:_ZN4dyldL12notifySingleE17dyld_image_statesPK11ImageLoaderPNS1_21InitializerTimingListE
   fun:_ZN11ImageLoader23recursiveInitializationERKNS_11LinkContextEjPKcRNS_21InitializerTimingListERNS_15UninitedUpwardsE
   fun:_ZN11ImageLoader23recursiveInitializationERKNS_11LinkContextEjPKcRNS_21InitializerTimingListERNS_15UninitedUpwardsE
   fun:_ZN11ImageLoader23recursiveInitializationERKNS_11LinkContextEjPKcRNS_21InitializerTimingListERNS_15UninitedUpwardsE
   fun:_ZN11ImageLoader23recursiveInitializationERKNS_11LinkContextEjPKcRNS_21InitializerTimingListERNS_15UninitedUpwardsE
   fun:_ZN11ImageLoader23recursiveInitializationERKNS_11LinkContextEjPKcRNS_21InitializerTimingListERNS_15UninitedUpwardsE
   fun:_ZN11ImageLoader23recursiveInitializationERKNS_11LinkContextEjPKcRNS_21InitializerTimingListERNS_15UninitedUpwardsE
   fun:_ZN11ImageLoader19processInitializersERKNS_11LinkContextEjRNS_21InitializerTimingListERNS_15UninitedUpwardsE
   fun:_ZN11ImageLoader15runInitializersERKNS_11LinkContextERNS_21InitializerTimingListE
}
{
   <mlx_suppression_rule_044>
   Memcheck:Leak
   match-leak-kinds: reachable
   fun:calloc
   fun:_ZN4objc8DenseMapIP10objc_classS2_NS_17DenseMapValueInfoIS2_EENS_12DenseMapInfoIS2_EENS_6detail12DenseMapPairIS2_S2_EEE4growEj
   fun:_ZN10objc_class11mangledNameEv
   fun:objc_msgSendSuper2
   fun:_ZN4dyldL12notifySingleE17dyld_image_statesPK11ImageLoaderPNS1_21InitializerTimingListE
   fun:_ZN11ImageLoader23recursiveInitializationERKNS_11LinkContextEjPKcRNS_21InitializerTimingListERNS_15UninitedUpwardsE
   fun:_ZN11ImageLoader23recursiveInitializationERKNS_11LinkContextEjPKcRNS_21InitializerTimingListERNS_15UninitedUpwardsE
   fun:_ZN11ImageLoader23recursiveInitializationERKNS_11LinkContextEjPKcRNS_21InitializerTimingListERNS_15UninitedUpwardsE
   fun:_ZN11ImageLoader23recursiveInitializationERKNS_11LinkContextEjPKcRNS_21InitializerTimingListERNS_15UninitedUpwardsE
   fun:_ZN11ImageLoader23recursiveInitializationERKNS_11LinkContextEjPKcRNS_21InitializerTimingListERNS_15UninitedUpwardsE
   fun:_ZN11ImageLoader23recursiveInitializationERKNS_11LinkContextEjPKcRNS_21InitializerTimingListERNS_15UninitedUpwardsE
   fun:_ZN11ImageLoader19processInitializersERKNS_11LinkContextEjRNS_21InitializerTimingListERNS_15UninitedUpwardsE
}
{
   <mlx_suppression_rule_045>
   Memcheck:Leak
   match-leak-kinds: possible
   fun:malloc
   fun:_ZL24realizeClassWithoutSwiftP10objc_classS0_
   fun:_ZL32adjustCustomFlagsForMethodChangeP10objc_classP8method_t
   fun:_ZL32adjustCustomFlagsForMethodChangeP10objc_classP8method_t
   fun:_ZL16attachCategoriesP10objc_classPK21locstamped_category_tji
   fun:_ZN10objc_class11mangledNameEv
   fun:objc_msgSendSuper2
   fun:_ZN4dyldL12notifySingleE17dyld_image_statesPK11ImageLoaderPNS1_21InitializerTimingListE
   fun:_ZN11ImageLoader23recursiveInitializationERKNS_11LinkContextEjPKcRNS_21InitializerTimingListERNS_15UninitedUpwardsE
   fun:_ZN11ImageLoader23recursiveInitializationERKNS_11LinkContextEjPKcRNS_21InitializerTimingListERNS_15UninitedUpwardsE
   fun:_ZN11ImageLoader23recursiveInitializationERKNS_11LinkContextEjPKcRNS_21InitializerTimingListERNS_15UninitedUpwardsE
   fun:_ZN11ImageLoader23recursiveInitializationERKNS_11LinkContextEjPKcRNS_21InitializerTimingListERNS_15UninitedUpwardsE
}
{
   <mlx_suppression_rule_046>
   Memcheck:Leak
   match-leak-kinds: possible
   fun:malloc
   fun:_ZL24realizeClassWithoutSwiftP10objc_classS0_
   fun:_ZL32adjustCustomFlagsForMethodChangeP10objc_classP8method_t
   fun:_ZL32adjustCustomFlagsForMethodChangeP10objc_classP8method_t
   fun:_ZL16attachCategoriesP10objc_classPK21locstamped_category_tji
   fun:objc_msgSendSuper2
   fun:_ZN4dyldL12notifySingleE17dyld_image_statesPK11ImageLoaderPNS1_21InitializerTimingListE
   fun:_ZN11ImageLoader23recursiveInitializationERKNS_11LinkContextEjPKcRNS_21InitializerTimingListERNS_15UninitedUpwardsE
   fun:_ZN11ImageLoader23recursiveInitializationERKNS_11LinkContextEjPKcRNS_21InitializerTimingListERNS_15UninitedUpwardsE
   fun:_ZN11ImageLoader23recursiveInitializationERKNS_11LinkContextEjPKcRNS_21InitializerTimingListERNS_15UninitedUpwardsE
   fun:_ZN11ImageLoader23recursiveInitializationERKNS_11LinkContextEjPKcRNS_21InitializerTimingListERNS_15UninitedUpwardsE
   fun:_ZN11ImageLoader23recursiveInitializationERKNS_11LinkContextEjPKcRNS_21InitializerTimingListERNS_15UninitedUpwardsE
}
{
   <mlx_suppression_rule_047>
   Memcheck:Leak
   match-leak-kinds: indirect
   fun:malloc
   fun:_ZL24realizeClassWithoutSwiftP10objc_classS0_
   fun:_ZL32adjustCustomFlagsForMethodChangeP10objc_classP8method_t
   fun:_ZL32adjustCustomFlagsForMethodChangeP10objc_classP8method_t
   fun:_ZL16attachCategoriesP10objc_classPK21locstamped_category_tji
   fun:_ZN10objc_class11mangledNameEv
   fun:_ZL16addRemappedClassP10objc_classS0_
   fun:objc_initializeClassPair
   fun:objc_registerClassPair
   fun:__CFStringCreateImmutableFunnel3
   fun:__CFInitialize
   fun:_ZN16ImageLoaderMachO11doImageInitERKN11ImageLoader11LinkContextE
}
{
   <mlx_suppression_rule_048>
   Memcheck:Leak
   match-leak-kinds: indirect
   fun:malloc
   fun:_ZL24realizeClassWithoutSwiftP10objc_classS0_
   fun:_ZL32adjustCustomFlagsForMethodChangeP10objc_classP8method_t
   fun:_ZL32adjustCustomFlagsForMethodChangeP10objc_classP8method_t
   fun:_ZL16attachCategoriesP10objc_classPK21locstamped_category_tji
   fun:_ZL16addRemappedClassP10objc_classS0_
   fun:objc_initializeClassPair
   fun:objc_registerClassPair
   fun:__CFStringCreateImmutableFunnel3
   fun:__CFInitialize
   fun:_ZN16ImageLoaderMachO11doImageInitERKN11ImageLoader11LinkContextE
   fun:_ZN16ImageLoaderMachO16doInitializationERKN11ImageLoader11LinkContextE
}
{
   <mlx_suppression_rule_049>
   Memcheck:Leak
   match-leak-kinds: indirect
   fun:malloc
   fun:_ZL24realizeClassWithoutSwiftP10objc_classS0_
   fun:_ZL32adjustCustomFlagsForMethodChangeP10objc_classP8method_t
   fun:_ZL32adjustCustomFlagsForMethodChangeP10objc_classP8method_t
   fun:_ZL16attachCategoriesP10objc_classPK21locstamped_category_tji
   fun:_ZN10objc_class11mangledNameEv
   fun:_ZN10objc_class11mangledNameEv
   fun:_ZL16addRemappedClassP10objc_classS0_
   fun:objc_initializeClassPair
   fun:objc_registerClassPair
   fun:__CFStringCreateImmutableFunnel3
   fun:__CFInitializeLinkCheck
}
{
   <mlx_suppression_rule_050>
   Memcheck:Leak
   match-leak-kinds: indirect
   fun:malloc
   fun:_ZL24realizeClassWithoutSwiftP10objc_classS0_
   fun:_ZL32adjustCustomFlagsForMethodChangeP10objc_classP8method_t
   fun:_ZL32adjustCustomFlagsForMethodChangeP10objc_classP8method_t
   fun:_ZL16attachCategoriesP10objc_classPK21locstamped_category_tji
   fun:_ZN10objc_class11mangledNameEv
   fun:_ZL16addRemappedClassP10objc_classS0_
   fun:objc_initializeClassPair
   fun:objc_registerClassPair
   fun:__CFStringCreateImmutableFunnel3
   fun:__CFInitializeLinkCheck
   fun:_ZN16ImageLoaderMachO11doImageInitERKN11ImageLoader11LinkContextE
}
{
   <mlx_suppression_rule_051>
   Memcheck:Leak
   match-leak-kinds: indirect
   fun:malloc
   fun:_ZL24realizeClassWithoutSwiftP10objc_classS0_
   fun:_ZL32adjustCustomFlagsForMethodChangeP10objc_classP8method_t
   fun:_ZL32adjustCustomFlagsForMethodChangeP10objc_classP8method_t
   fun:_ZL16attachCategoriesP10objc_classPK21locstamped_category_tji
   fun:_ZN10objc_class11mangledNameEv
   fun:_ZL16addRemappedClassP10objc_classS0_
   fun:objc_initializeClassPair
   fun:objc_registerClassPair
   fun:__CFStringCreateImmutableFunnel3
   fun:__CFInitializeLinkCheck
   fun:_ZN16ImageLoaderMachO11doImageInitERKN11ImageLoader11LinkContextE
}
{
   <mlx_suppression_rule_052>
   Memcheck:Leak
   match-leak-kinds: indirect
   fun:malloc
   fun:_ZL24realizeClassWithoutSwiftP10objc_classS0_
   fun:_ZL32adjustCustomFlagsForMethodChangeP10objc_classP8method_t
   fun:_ZL32adjustCustomFlagsForMethodChangeP10objc_classP8method_t
   fun:_ZL16attachCategoriesP10objc_classPK21locstamped_category_tji
   fun:_ZN10objc_class11mangledNameEv
   fun:_ZL16addRemappedClassP10objc_classS0_
   fun:objc_initializeClassPair
   fun:_NSToDoAtProcessStart
   fun:_NSInitializePlatform
   fun:objc_msgLookup_fpret
   fun:_ZN4dyldL12notifySingleE17dyld_image_statesPK11ImageLoaderPNS1_21InitializerTimingListE
}
{
   <mlx_suppression_rule_053>
   Memcheck:Leak
   match-leak-kinds: indirect
   fun:malloc
   fun:_ZL24realizeClassWithoutSwiftP10objc_classS0_
   fun:_ZL32adjustCustomFlagsForMethodChangeP10objc_classP8method_t
   fun:_ZL32adjustCustomFlagsForMethodChangeP10objc_classP8method_t
   fun:_ZL16attachCategoriesP10objc_classPK21locstamped_category_tji
   fun:_ZL16addRemappedClassP10objc_classS0_
   fun:objc_initializeClassPair
   fun:_NSToDoAtProcessStart
   fun:_NSInitializePlatform
   fun:objc_msgLookup_fpret
   fun:_ZN4dyldL12notifySingleE17dyld_image_statesPK11ImageLoaderPNS1_21InitializerTimingListE
   fun:_ZN11ImageLoader23recursiveInitializationERKNS_11LinkContextEjPKcRNS_21InitializerTimingListERNS_15UninitedUpwardsE
}
{
   <mlx_suppression_rule_054>
   Memcheck:Leak
   match-leak-kinds: indirect
   fun:malloc
   fun:_ZL24realizeClassWithoutSwiftP10objc_classS0_
   fun:_ZL32adjustCustomFlagsForMethodChangeP10objc_classP8method_t
   fun:_ZL32adjustCustomFlagsForMethodChangeP10objc_classP8method_t
   fun:_ZL16attachCategoriesP10objc_classPK21locstamped_category_tji
   fun:_ZN10objc_class11mangledNameEv
   fun:_ZN10objc_class11mangledNameEv
   fun:_ZL16addRemappedClassP10objc_classS0_
   fun:objc_initializeClassPair
   fun:_NSToDoAtProcessStart
   fun:_NSInitializePlatform
   fun:objc_msgLookup_fpret
}
{
   <mlx_suppression_rule_055>
   Memcheck:Leak
   match-leak-kinds: indirect
   fun:malloc
   fun:_ZL24realizeClassWithoutSwiftP10objc_classS0_
   fun:_ZL32adjustCustomFlagsForMethodChangeP10objc_classP8method_t
   fun:_ZL32adjustCustomFlagsForMethodChangeP10objc_classP8method_t
   fun:_ZL16attachCategoriesP10objc_classPK21locstamped_category_tji
   fun:_ZL16addRemappedClassP10objc_classS0_
   fun:objc_initializeClassPair
   fun:_NSToDoAtProcessStart
   fun:_NSInitializePlatform
   fun:objc_msgLookup_fpret
   fun:_ZN4dyldL12notifySingleE17dyld_image_statesPK11ImageLoaderPNS1_21InitializerTimingListE
   fun:_ZN11ImageLoader23recursiveInitializationERKNS_11LinkContextEjPKcRNS_21InitializerTimingListERNS_15UninitedUpwardsE
}
{
   <mlx_suppression_rule_056>
   Memcheck:Leak
   match-leak-kinds: definite
   fun:calloc
   fun:_ZN4objc8DenseMapIP10objc_classS2_NS_17DenseMapValueInfoIS2_EENS_12DenseMapInfoIS2_EENS_6detail12DenseMapPairIS2_S2_EEE4growEj
   fun:_ZL16addRemappedClassP10objc_classS0_
   fun:objc_initializeClassPair
   fun:__CFInitialize
   fun:_dispatch_client_callout
   fun:_dispatch_once_callout
   fun:__CFInitialize
   fun:objc_msgLookup_fpret
   fun:_ZN4dyldL12notifySingleE17dyld_image_statesPK11ImageLoaderPNS1_21InitializerTimingListE
   fun:_ZN11ImageLoader23recursiveInitializationERKNS_11LinkContextEjPKcRNS_21InitializerTimingListERNS_15UninitedUpwardsE
   fun:_ZN11ImageLoader23recursiveInitializationERKNS_11LinkContextEjPKcRNS_21InitializerTimingListERNS_15UninitedUpwardsE
}
{
   <mlx_suppression_rule_057>
   Memcheck:Leak
   match-leak-kinds: definite
   fun:calloc
   fun:_ZN4objc8DenseMapIP10objc_classS2_NS_17DenseMapValueInfoIS2_EENS_12DenseMapInfoIS2_EENS_6detail12DenseMapPairIS2_S2_EEE4growEj
   fun:_ZN10objc_class11mangledNameEv
   fun:_ZL16addRemappedClassP10objc_classS0_
   fun:objc_initializeClassPair
   fun:__CFInitialize
   fun:_dispatch_client_callout
   fun:_dispatch_once_callout
   fun:__CFInitialize
   fun:objc_msgLookup_fpret
   fun:_ZN4dyldL12notifySingleE17dyld_image_statesPK11ImageLoaderPNS1_21InitializerTimingListE
   fun:_ZN11ImageLoader23recursiveInitializationERKNS_11LinkContextEjPKcRNS_21InitializerTimingListERNS_15UninitedUpwardsE
}
{
   <mlx_suppression_rule_058>
   Memcheck:Leak
   match-leak-kinds: definite
   fun:calloc
   fun:_ZN4objc8DenseMapIP10objc_classS2_NS_17DenseMapValueInfoIS2_EENS_12DenseMapInfoIS2_EENS_6detail12DenseMapPairIS2_S2_EEE4growEj
   fun:_ZL16addRemappedClassP10objc_classS0_
   fun:objc_initializeClassPair
   fun:objc_registerClassPair
   fun:__CFStringCreateImmutableFunnel3
   fun:__CFInitialize
   fun:_ZN16ImageLoaderMachO11doImageInitERKN11ImageLoader11LinkContextE
   fun:_ZN16ImageLoaderMachO16doInitializationERKN11ImageLoader11LinkContextE
   fun:_ZN11ImageLoader23recursiveInitializationERKNS_11LinkContextEjPKcRNS_21InitializerTimingListERNS_15UninitedUpwardsE
   fun:_ZN11ImageLoader23recursiveInitializationERKNS_11LinkContextEjPKcRNS_21InitializerTimingListERNS_15UninitedUpwardsE
   fun:_ZN11ImageLoader23recursiveInitializationERKNS_11LinkContextEjPKcRNS_21InitializerTimingListERNS_15UninitedUpwardsE
}
{
   <mlx_suppression_rule_059>
   Memcheck:Leak
   match-leak-kinds: definite
   fun:calloc
   fun:_ZN4objc8DenseMapIP10objc_classS2_NS_17DenseMapValueInfoIS2_EENS_12DenseMapInfoIS2_EENS_6detail12DenseMapPairIS2_S2_EEE4growEj
   fun:_ZN10objc_class11mangledNameEv
   fun:_ZL16addRemappedClassP10objc_classS0_
   fun:objc_initializeClassPair
   fun:objc_registerClassPair
   fun:__CFStringCreateImmutableFunnel3
   fun:__CFInitialize
   fun:_ZN16ImageLoaderMachO11doImageInitERKN11ImageLoader11LinkContextE
   fun:_ZN16ImageLoaderMachO16doInitializationERKN11ImageLoader11LinkContextE
   fun:_ZN11ImageLoader23recursiveInitializationERKNS_11LinkContextEjPKcRNS_21InitializerTimingListERNS_15UninitedUpwardsE
   fun:_ZN11ImageLoader23recursiveInitializationERKNS_11LinkContextEjPKcRNS_21InitializerTimingListERNS_15UninitedUpwardsE
}
{
   <mlx_suppression_rule_060>
   Memcheck:Leak
   match-leak-kinds: definite
   fun:calloc
   fun:_ZN4objc8DenseMapIP10objc_classS2_NS_17DenseMapValueInfoIS2_EENS_12DenseMapInfoIS2_EENS_6detail12DenseMapPairIS2_S2_EEE4growEj
   fun:_ZL16addRemappedClassP10objc_classS0_
   fun:objc_initializeClassPair
   fun:__CFInitialize
   fun:_ZN16ImageLoaderMachO11doImageInitERKN11ImageLoader11LinkContextE
   fun:_ZN16ImageLoaderMachO16doInitializationERKN11ImageLoader11LinkContextE
   fun:_ZN11ImageLoader23recursiveInitializationERKNS_11LinkContextEjPKcRNS_21InitializerTimingListERNS_15UninitedUpwardsE
   fun:_ZN11ImageLoader23recursiveInitializationERKNS_11LinkContextEjPKcRNS_21InitializerTimingListERNS_15UninitedUpwardsE
   fun:_ZN11ImageLoader23recursiveInitializationERKNS_11LinkContextEjPKcRNS_21InitializerTimingListERNS_15UninitedUpwardsE
   fun:_ZN11ImageLoader23recursiveInitializationERKNS_11LinkContextEjPKcRNS_21InitializerTimingListERNS_15UninitedUpwardsE
   fun:_ZN11ImageLoader23recursiveInitializationERKNS_11LinkContextEjPKcRNS_21InitializerTimingListERNS_15UninitedUpwardsE
}
{
   <mlx_suppression_rule_061>
   Memcheck:Leak
   match-leak-kinds: definite
   fun:calloc
   fun:_ZN4objc8DenseMapIP10objc_classS2_NS_17DenseMapValueInfoIS2_EENS_12DenseMapInfoIS2_EENS_6detail12DenseMapPairIS2_S2_EEE4growEj
   fun:_ZN10objc_class11mangledNameEv
   fun:_ZL16addRemappedClassP10objc_classS0_
   fun:objc_initializeClassPair
   fun:__CFInitialize
   fun:_ZN16ImageLoaderMachO11doImageInitERKN11ImageLoader11LinkContextE
   fun:_ZN16ImageLoaderMachO16doInitializationERKN11ImageLoader11LinkContextE
   fun:_ZN11ImageLoader23recursiveInitializationERKNS_11LinkContextEjPKcRNS_21InitializerTimingListERNS_15UninitedUpwardsE
   fun:_ZN11ImageLoader23recursiveInitializationERKNS_11LinkContextEjPKcRNS_21InitializerTimingListERNS_15UninitedUpwardsE
   fun:_ZN11ImageLoader23recursiveInitializationERKNS_11LinkContextEjPKcRNS_21InitializerTimingListERNS_15UninitedUpwardsE
   fun:_ZN11ImageLoader23recursiveInitializationERKNS_11LinkContextEjPKcRNS_21InitializerTimingListERNS_15UninitedUpwardsE
}
{
   <mlx_suppression_rule_062>
   Memcheck:Leak
   match-leak-kinds: definite
   fun:calloc
   fun:_ZN4objc8DenseMapIP10objc_classS2_NS_17DenseMapValueInfoIS2_EENS_12DenseMapInfoIS2_EENS_6detail12DenseMapPairIS2_S2_EEE4growEj
   fun:_ZN10objc_class11mangledNameEv
   fun:_ZN10objc_class11mangledNameEv
   fun:_ZL16addRemappedClassP10objc_classS0_
   fun:objc_initializeClassPair
   fun:__CFInitialize
   fun:_ZN16ImageLoaderMachO11doImageInitERKN11ImageLoader11LinkContextE
   fun:_ZN16ImageLoaderMachO16doInitializationERKN11ImageLoader11LinkContextE
   fun:_ZN11ImageLoader23recursiveInitializationERKNS_11LinkContextEjPKcRNS_21InitializerTimingListERNS_15UninitedUpwardsE
   fun:_ZN11ImageLoader23recursiveInitializationERKNS_11LinkContextEjPKcRNS_21InitializerTimingListERNS_15UninitedUpwardsE
   fun:_ZN11ImageLoader23recursiveInitializationERKNS_11LinkContextEjPKcRNS_21InitializerTimingListERNS_15UninitedUpwardsE
}
{
   <mlx_suppression_rule_063>
   Memcheck:Leak
   match-leak-kinds: definite
   fun:calloc
   fun:_ZN4objc8DenseMapIP10objc_classS2_NS_17DenseMapValueInfoIS2_EENS_12DenseMapInfoIS2_EENS_6detail12DenseMapPairIS2_S2_EEE4growEj
   fun:_ZN10objc_class11mangledNameEv
   fun:_ZL16addRemappedClassP10objc_classS0_
   fun:objc_initializeClassPair
   fun:__CFInitialize
   fun:_ZN16ImageLoaderMachO11doImageInitERKN11ImageLoader11LinkContextE
   fun:_ZN16ImageLoaderMachO16doInitializationERKN11ImageLoader11LinkContextE
   fun:_ZN11ImageLoader23recursiveInitializationERKNS_11LinkContextEjPKcRNS_21InitializerTimingListERNS_15UninitedUpwardsE
   fun:_ZN11ImageLoader23recursiveInitializationERKNS_11LinkContextEjPKcRNS_21InitializerTimingListERNS_15UninitedUpwardsE
   fun:_ZN11ImageLoader23recursiveInitializationERKNS_11LinkContextEjPKcRNS_21InitializerTimingListERNS_15UninitedUpwardsE
   fun:_ZN11ImageLoader23recursiveInitializationERKNS_11LinkContextEjPKcRNS_21InitializerTimingListERNS_15UninitedUpwardsE
}
{
   <mlx_suppression_rule_064>
   Memcheck:Leak
   match-leak-kinds: definite
   fun:calloc
   fun:_ZN4objc8DenseMapIP10objc_classS2_NS_17DenseMapValueInfoIS2_EENS_12DenseMapInfoIS2_EENS_6detail12DenseMapPairIS2_S2_EEE4growEj
   fun:_ZL16addRemappedClassP10objc_classS0_
   fun:objc_initializeClassPair
   fun:objc_registerClassPair
   fun:__CFStringCreateImmutableFunnel3
   fun:__CFInitialize
   fun:_ZN16ImageLoaderMachO11doImageInitERKN11ImageLoader11LinkContextE
   fun:_ZN16ImageLoaderMachO16doInitializationERKN11ImageLoader11LinkContextE
   fun:_ZN11ImageLoader23recursiveInitializationERKNS_11LinkContextEjPKcRNS_21InitializerTimingListERNS_15UninitedUpwardsE
   fun:_ZN11ImageLoader23recursiveInitializationERKNS_11LinkContextEjPKcRNS_21InitializerTimingListERNS_15UninitedUpwardsE
   fun:_ZN11ImageLoader23recursiveInitializationERKNS_11LinkContextEjPKcRNS_21InitializerTimingListERNS_15UninitedUpwardsE
}
{
   <mlx_suppression_rule_065>
   Memcheck:Leak
   match-leak-kinds: definite
   fun:calloc
   fun:_ZN4objc8DenseMapIP10objc_classS2_NS_17DenseMapValueInfoIS2_EENS_12DenseMapInfoIS2_EENS_6detail12DenseMapPairIS2_S2_EEE4growEj
   fun:_ZN10objc_class11mangledNameEv
   fun:_ZL16addRemappedClassP10objc_classS0_
   fun:objc_initializeClassPair
   fun:objc_registerClassPair
   fun:__CFStringCreateImmutableFunnel3
   fun:__CFInitialize
   fun:_ZN16ImageLoaderMachO11doImageInitERKN11ImageLoader11LinkContextE
   fun:_ZN16ImageLoaderMachO16doInitializationERKN11ImageLoader11LinkContextE
   fun:_ZN11ImageLoader23recursiveInitializationERKNS_11LinkContextEjPKcRNS_21InitializerTimingListERNS_15UninitedUpwardsE
   fun:_ZN11ImageLoader23recursiveInitializationERKNS_11LinkContextEjPKcRNS_21InitializerTimingListERNS_15UninitedUpwardsE
}
{
   <mlx_suppression_rule_066>
   Memcheck:Leak
   match-leak-kinds: definite
   fun:calloc
   fun:_ZN4objc8DenseMapIP10objc_classS2_NS_17DenseMapValueInfoIS2_EENS_12DenseMapInfoIS2_EENS_6detail12DenseMapPairIS2_S2_EEE4growEj
   fun:_ZL16addRemappedClassP10objc_classS0_
   fun:objc_initializeClassPair
   fun:objc_registerClassPair
   fun:__CFStringCreateImmutableFunnel3
   fun:__CFInitialize
   fun:_ZN16ImageLoaderMachO11doImageInitERKN11ImageLoader11LinkContextE
   fun:_ZN16ImageLoaderMachO16doInitializationERKN11ImageLoader11LinkContextE
   fun:_ZN11ImageLoader23recursiveInitializationERKNS_11LinkContextEjPKcRNS_21InitializerTimingListERNS_15UninitedUpwardsE
   fun:_ZN11ImageLoader23recursiveInitializationERKNS_11LinkContextEjPKcRNS_21InitializerTimingListERNS_15UninitedUpwardsE
   fun:_ZN11ImageLoader23recursiveInitializationERKNS_11LinkContextEjPKcRNS_21InitializerTimingListERNS_15UninitedUpwardsE
}
{
   <mlx_suppression_rule_067>
   Memcheck:Leak
   match-leak-kinds: definite
   fun:calloc
   fun:_ZN4objc8DenseMapIP10objc_classS2_NS_17DenseMapValueInfoIS2_EENS_12DenseMapInfoIS2_EENS_6detail12DenseMapPairIS2_S2_EEE4growEj
   fun:_ZN10objc_class11mangledNameEv
   fun:_ZL16addRemappedClassP10objc_classS0_
   fun:objc_initializeClassPair
   fun:objc_registerClassPair
   fun:__CFStringCreateImmutableFunnel3
   fun:__CFInitialize
   fun:_ZN16ImageLoaderMachO11doImageInitERKN11ImageLoader11LinkContextE
   fun:_ZN16ImageLoaderMachO16doInitializationERKN11ImageLoader11LinkContextE
   fun:_ZN11ImageLoader23recursiveInitializationERKNS_11LinkContextEjPKcRNS_21InitializerTimingListERNS_15UninitedUpwardsE
   fun:_ZN11ImageLoader23recursiveInitializationERKNS_11LinkContextEjPKcRNS_21InitializerTimingListERNS_15UninitedUpwardsE
}
{
   <mlx_suppression_rule_068>
   Memcheck:Leak
   match-leak-kinds: definite
   fun:calloc
   fun:_ZN4objc8DenseMapIP10objc_classS2_NS_17DenseMapValueInfoIS2_EENS_12DenseMapInfoIS2_EENS_6detail12DenseMapPairIS2_S2_EEE4growEj
   fun:_ZL16addRemappedClassP10objc_classS0_
   fun:objc_initializeClassPair
   fun:objc_registerClassPair
   fun:__CFStringCreateImmutableFunnel3
   fun:__CFInitialize
   fun:_ZN16ImageLoaderMachO11doImageInitERKN11ImageLoader11LinkContextE
   fun:_ZN16ImageLoaderMachO16doInitializationERKN11ImageLoader11LinkContextE
   fun:_ZN11ImageLoader23recursiveInitializationERKNS_11LinkContextEjPKcRNS_21InitializerTimingListERNS_15UninitedUpwardsE
   fun:_ZN11ImageLoader23recursiveInitializationERKNS_11LinkContextEjPKcRNS_21InitializerTimingListERNS_15UninitedUpwardsE
   fun:_ZN11ImageLoader23recursiveInitializationERKNS_11LinkContextEjPKcRNS_21InitializerTimingListERNS_15UninitedUpwardsE
}
{
   <mlx_suppression_rule_069>
   Memcheck:Leak
   match-leak-kinds: definite
   fun:calloc
   fun:_ZN4objc8DenseMapIP10objc_classS2_NS_17DenseMapValueInfoIS2_EENS_12DenseMapInfoIS2_EENS_6detail12DenseMapPairIS2_S2_EEE4growEj
   fun:_ZN10objc_class11mangledNameEv
   fun:_ZL16addRemappedClassP10objc_classS0_
   fun:objc_initializeClassPair
   fun:objc_registerClassPair
   fun:__CFStringCreateImmutableFunnel3
   fun:__CFInitialize
   fun:_ZN16ImageLoaderMachO11doImageInitERKN11ImageLoader11LinkContextE
   fun:_ZN16ImageLoaderMachO16doInitializationERKN11ImageLoader11LinkContextE
   fun:_ZN11ImageLoader23recursiveInitializationERKNS_11LinkContextEjPKcRNS_21InitializerTimingListERNS_15UninitedUpwardsE
   fun:_ZN11ImageLoader23recursiveInitializationERKNS_11LinkContextEjPKcRNS_21InitializerTimingListERNS_15UninitedUpwardsE
}
{
   <mlx_suppression_rule_070>
   Memcheck:Leak
   match-leak-kinds: definite
   fun:calloc
   fun:_ZN4objc8DenseMapIP10objc_classS2_NS_17DenseMapValueInfoIS2_EENS_12DenseMapInfoIS2_EENS_6detail12DenseMapPairIS2_S2_EEE4growEj
   fun:_ZL16addRemappedClassP10objc_classS0_
   fun:objc_initializeClassPair
   fun:objc_registerClassPair
   fun:__CFStringCreateImmutableFunnel3
   fun:__CFInitialize
   fun:_ZN16ImageLoaderMachO11doImageInitERKN11ImageLoader11LinkContextE
   fun:_ZN16ImageLoaderMachO16doInitializationERKN11ImageLoader11LinkContextE
   fun:_ZN11ImageLoader23recursiveInitializationERKNS_11LinkContextEjPKcRNS_21InitializerTimingListERNS_15UninitedUpwardsE
   fun:_ZN11ImageLoader23recursiveInitializationERKNS_11LinkContextEjPKcRNS_21InitializerTimingListERNS_15UninitedUpwardsE
   fun:_ZN11ImageLoader23recursiveInitializationERKNS_11LinkContextEjPKcRNS_21InitializerTimingListERNS_15UninitedUpwardsE
}
{
   <mlx_suppression_rule_071>
   Memcheck:Leak
   match-leak-kinds: definite
   fun:calloc
   fun:_ZN4objc8DenseMapIP10objc_classS2_NS_17DenseMapValueInfoIS2_EENS_12DenseMapInfoIS2_EENS_6detail12DenseMapPairIS2_S2_EEE4growEj
   fun:_ZN10objc_class11mangledNameEv
   fun:_ZL16addRemappedClassP10objc_classS0_
   fun:objc_initializeClassPair
   fun:objc_registerClassPair
   fun:__CFStringCreateImmutableFunnel3
   fun:__CFInitialize
   fun:_ZN16ImageLoaderMachO11doImageInitERKN11ImageLoader11LinkContextE
   fun:_ZN16ImageLoaderMachO16doInitializationERKN11ImageLoader11LinkContextE
   fun:_ZN11ImageLoader23recursiveInitializationERKNS_11LinkContextEjPKcRNS_21InitializerTimingListERNS_15UninitedUpwardsE
   fun:_ZN11ImageLoader23recursiveInitializationERKNS_11LinkContextEjPKcRNS_21InitializerTimingListERNS_15UninitedUpwardsE
}
{
   <mlx_suppression_rule_072>
   Memcheck:Leak
   match-leak-kinds: definite
   fun:calloc
   fun:_ZN4objc8DenseMapIP10objc_classS2_NS_17DenseMapValueInfoIS2_EENS_12DenseMapInfoIS2_EENS_6detail12DenseMapPairIS2_S2_EEE4growEj
   fun:_ZL16addRemappedClassP10objc_classS0_
   fun:objc_initializeClassPair
   fun:objc_registerClassPair
   fun:__CFStringCreateImmutableFunnel3
   fun:__CFInitialize
   fun:_ZN16ImageLoaderMachO11doImageInitERKN11ImageLoader11LinkContextE
   fun:_ZN16ImageLoaderMachO16doInitializationERKN11ImageLoader11LinkContextE
   fun:_ZN11ImageLoader23recursiveInitializationERKNS_11LinkContextEjPKcRNS_21InitializerTimingListERNS_15UninitedUpwardsE
   fun:_ZN11ImageLoader23recursiveInitializationERKNS_11LinkContextEjPKcRNS_21InitializerTimingListERNS_15UninitedUpwardsE
   fun:_ZN11ImageLoader23recursiveInitializationERKNS_11LinkContextEjPKcRNS_21InitializerTimingListERNS_15UninitedUpwardsE
}
{
   <mlx_suppression_rule_073>
   Memcheck:Leak
   match-leak-kinds: definite
   fun:calloc
   fun:_ZN4objc8DenseMapIP10objc_classS2_NS_17DenseMapValueInfoIS2_EENS_12DenseMapInfoIS2_EENS_6detail12DenseMapPairIS2_S2_EEE4growEj
   fun:_ZN10objc_class11mangledNameEv
   fun:_ZL16addRemappedClassP10objc_classS0_
   fun:objc_initializeClassPair
   fun:objc_registerClassPair
   fun:__CFStringCreateImmutableFunnel3
   fun:__CFInitialize
   fun:_ZN16ImageLoaderMachO11doImageInitERKN11ImageLoader11LinkContextE
   fun:_ZN16ImageLoaderMachO16doInitializationERKN11ImageLoader11LinkContextE
   fun:_ZN11ImageLoader23recursiveInitializationERKNS_11LinkContextEjPKcRNS_21InitializerTimingListERNS_15UninitedUpwardsE
   fun:_ZN11ImageLoader23recursiveInitializationERKNS_11LinkContextEjPKcRNS_21InitializerTimingListERNS_15UninitedUpwardsE
}
{
   <mlx_suppression_rule_074>
   Memcheck:Leak
   match-leak-kinds: definite
   fun:calloc
   fun:_ZN4objc8DenseMapIP10objc_classS2_NS_17DenseMapValueInfoIS2_EENS_12DenseMapInfoIS2_EENS_6detail12DenseMapPairIS2_S2_EEE4growEj
   fun:_ZL16addRemappedClassP10objc_classS0_
   fun:objc_initializeClassPair
   fun:objc_registerClassPair
   fun:__CFStringCreateImmutableFunnel3
   fun:__CFInitialize
   fun:_ZN16ImageLoaderMachO11doImageInitERKN11ImageLoader11LinkContextE
   fun:_ZN16ImageLoaderMachO16doInitializationERKN11ImageLoader11LinkContextE
   fun:_ZN11ImageLoader23recursiveInitializationERKNS_11LinkContextEjPKcRNS_21InitializerTimingListERNS_15UninitedUpwardsE
   fun:_ZN11ImageLoader23recursiveInitializationERKNS_11LinkContextEjPKcRNS_21InitializerTimingListERNS_15UninitedUpwardsE
   fun:_ZN11ImageLoader23recursiveInitializationERKNS_11LinkContextEjPKcRNS_21InitializerTimingListERNS_15UninitedUpwardsE
}
{
   <mlx_suppression_rule_075>
   Memcheck:Leak
   match-leak-kinds: definite
   fun:calloc
   fun:_ZN4objc8DenseMapIP10objc_classS2_NS_17DenseMapValueInfoIS2_EENS_12DenseMapInfoIS2_EENS_6detail12DenseMapPairIS2_S2_EEE4growEj
   fun:_ZN10objc_class11mangledNameEv
   fun:_ZL16addRemappedClassP10objc_classS0_
   fun:objc_initializeClassPair
   fun:objc_registerClassPair
   fun:__CFStringCreateImmutableFunnel3
   fun:__CFInitialize
   fun:_ZN16ImageLoaderMachO11doImageInitERKN11ImageLoader11LinkContextE
   fun:_ZN16ImageLoaderMachO16doInitializationERKN11ImageLoader11LinkContextE
   fun:_ZN11ImageLoader23recursiveInitializationERKNS_11LinkContextEjPKcRNS_21InitializerTimingListERNS_15UninitedUpwardsE
   fun:_ZN11ImageLoader23recursiveInitializationERKNS_11LinkContextEjPKcRNS_21InitializerTimingListERNS_15UninitedUpwardsE
}
{
   <mlx_suppression_rule_076>
   Memcheck:Leak
   match-leak-kinds: definite
   fun:calloc
   fun:_ZN4objc8DenseMapIP10objc_classS2_NS_17DenseMapValueInfoIS2_EENS_12DenseMapInfoIS2_EENS_6detail12DenseMapPairIS2_S2_EEE4growEj
   fun:_ZL16addRemappedClassP10objc_classS0_
   fun:objc_initializeClassPair
   fun:objc_registerClassPair
   fun:__CFStringCreateImmutableFunnel3
   fun:__CFInitialize
   fun:_ZN16ImageLoaderMachO11doImageInitERKN11ImageLoader11LinkContextE
   fun:_ZN16ImageLoaderMachO16doInitializationERKN11ImageLoader11LinkContextE
   fun:_ZN11ImageLoader23recursiveInitializationERKNS_11LinkContextEjPKcRNS_21InitializerTimingListERNS_15UninitedUpwardsE
   fun:_ZN11ImageLoader23recursiveInitializationERKNS_11LinkContextEjPKcRNS_21InitializerTimingListERNS_15UninitedUpwardsE
   fun:_ZN11ImageLoader23recursiveInitializationERKNS_11LinkContextEjPKcRNS_21InitializerTimingListERNS_15UninitedUpwardsE
}
{
   <mlx_suppression_rule_077>
   Memcheck:Leak
   match-leak-kinds: definite
   fun:calloc
   fun:_ZN4objc8DenseMapIP10objc_classS2_NS_17DenseMapValueInfoIS2_EENS_12DenseMapInfoIS2_EENS_6detail12DenseMapPairIS2_S2_EEE4growEj
   fun:_ZN10objc_class11mangledNameEv
   fun:_ZL16addRemappedClassP10objc_classS0_
   fun:objc_initializeClassPair
   fun:objc_registerClassPair
   fun:__CFStringCreateImmutableFunnel3
   fun:__CFInitialize
   fun:_ZN16ImageLoaderMachO11doImageInitERKN11ImageLoader11LinkContextE
   fun:_ZN16ImageLoaderMachO16doInitializationERKN11ImageLoader11LinkContextE
   fun:_ZN11ImageLoader23recursiveInitializationERKNS_11LinkContextEjPKcRNS_21InitializerTimingListERNS_15UninitedUpwardsE
   fun:_ZN11ImageLoader23recursiveInitializationERKNS_11LinkContextEjPKcRNS_21InitializerTimingListERNS_15UninitedUpwardsE
}
{
   <mlx_suppression_rule_078>
   Memcheck:Leak
   match-leak-kinds: definite
   fun:calloc
   fun:_ZN4objc8DenseMapIP10objc_classS2_NS_17DenseMapValueInfoIS2_EENS_12DenseMapInfoIS2_EENS_6detail12DenseMapPairIS2_S2_EEE4growEj
   fun:_ZN10objc_class11mangledNameEv
   fun:_ZN10objc_class11mangledNameEv
   fun:_ZL16addRemappedClassP10objc_classS0_
   fun:objc_initializeClassPair
   fun:objc_registerClassPair
   fun:__CFStringCreateImmutableFunnel3
   fun:__CFInitialize
   fun:_ZN16ImageLoaderMachO11doImageInitERKN11ImageLoader11LinkContextE
   fun:_ZN16ImageLoaderMachO16doInitializationERKN11ImageLoader11LinkContextE
   fun:_ZN11ImageLoader23recursiveInitializationERKNS_11LinkContextEjPKcRNS_21InitializerTimingListERNS_15UninitedUpwardsE
}
{
   <mlx_suppression_rule_079>
   Memcheck:Leak
   match-leak-kinds: definite
   fun:calloc
   fun:_ZN4objc8DenseMapIP10objc_classS2_NS_17DenseMapValueInfoIS2_EENS_12DenseMapInfoIS2_EENS_6detail12DenseMapPairIS2_S2_EEE4growEj
   fun:_ZN10objc_class11mangledNameEv
   fun:_ZL16addRemappedClassP10objc_classS0_
   fun:objc_initializeClassPair
   fun:objc_registerClassPair
   fun:__CFStringCreateImmutableFunnel3
   fun:__CFInitialize
   fun:_ZN16ImageLoaderMachO11doImageInitERKN11ImageLoader11LinkContextE
   fun:_ZN16ImageLoaderMachO16doInitializationERKN11ImageLoader11LinkContextE
   fun:_ZN11ImageLoader23recursiveInitializationERKNS_11LinkContextEjPKcRNS_21InitializerTimingListERNS_15UninitedUpwardsE
   fun:_ZN11ImageLoader23recursiveInitializationERKNS_11LinkContextEjPKcRNS_21InitializerTimingListERNS_15UninitedUpwardsE
}
{
   <mlx_suppression_rule_080>
   Memcheck:Leak
   match-leak-kinds: definite
   fun:calloc
   fun:_ZN4objc8DenseMapIP10objc_classS2_NS_17DenseMapValueInfoIS2_EENS_12DenseMapInfoIS2_EENS_6detail12DenseMapPairIS2_S2_EEE4growEj
   fun:_ZL16addRemappedClassP10objc_classS0_
   fun:objc_initializeClassPair
   fun:objc_registerClassPair
   fun:__CFStringCreateImmutableFunnel3
   fun:__CFInitialize
   fun:_ZN16ImageLoaderMachO11doImageInitERKN11ImageLoader11LinkContextE
   fun:_ZN16ImageLoaderMachO16doInitializationERKN11ImageLoader11LinkContextE
   fun:_ZN11ImageLoader23recursiveInitializationERKNS_11LinkContextEjPKcRNS_21InitializerTimingListERNS_15UninitedUpwardsE
   fun:_ZN11ImageLoader23recursiveInitializationERKNS_11LinkContextEjPKcRNS_21InitializerTimingListERNS_15UninitedUpwardsE
   fun:_ZN11ImageLoader23recursiveInitializationERKNS_11LinkContextEjPKcRNS_21InitializerTimingListERNS_15UninitedUpwardsE
}
{
   <mlx_suppression_rule_081>
   Memcheck:Leak
   match-leak-kinds: definite
   fun:calloc
   fun:_ZN4objc8DenseMapIP10objc_classS2_NS_17DenseMapValueInfoIS2_EENS_12DenseMapInfoIS2_EENS_6detail12DenseMapPairIS2_S2_EEE4growEj
   fun:_ZN10objc_class11mangledNameEv
   fun:_ZL16addRemappedClassP10objc_classS0_
   fun:objc_initializeClassPair
   fun:objc_registerClassPair
   fun:__CFStringCreateImmutableFunnel3
   fun:__CFInitialize
   fun:_ZN16ImageLoaderMachO11doImageInitERKN11ImageLoader11LinkContextE
   fun:_ZN16ImageLoaderMachO16doInitializationERKN11ImageLoader11LinkContextE
   fun:_ZN11ImageLoader23recursiveInitializationERKNS_11LinkContextEjPKcRNS_21InitializerTimingListERNS_15UninitedUpwardsE
   fun:_ZN11ImageLoader23recursiveInitializationERKNS_11LinkContextEjPKcRNS_21InitializerTimingListERNS_15UninitedUpwardsE
}
{
   <mlx_suppression_rule_082>
   Memcheck:Leak
   match-leak-kinds: definite
   fun:calloc
   fun:_ZN4objc8DenseMapIP10objc_classS2_NS_17DenseMapValueInfoIS2_EENS_12DenseMapInfoIS2_EENS_6detail12DenseMapPairIS2_S2_EEE4growEj
   fun:_ZL16addRemappedClassP10objc_classS0_
   fun:objc_initializeClassPair
   fun:objc_registerClassPair
   fun:__CFStringCreateImmutableFunnel3
   fun:__CFInitialize
   fun:_ZN16ImageLoaderMachO11doImageInitERKN11ImageLoader11LinkContextE
   fun:_ZN16ImageLoaderMachO16doInitializationERKN11ImageLoader11LinkContextE
   fun:_ZN11ImageLoader23recursiveInitializationERKNS_11LinkContextEjPKcRNS_21InitializerTimingListERNS_15UninitedUpwardsE
   fun:_ZN11ImageLoader23recursiveInitializationERKNS_11LinkContextEjPKcRNS_21InitializerTimingListERNS_15UninitedUpwardsE
   fun:_ZN11ImageLoader23recursiveInitializationERKNS_11LinkContextEjPKcRNS_21InitializerTimingListERNS_15UninitedUpwardsE
}
{
   <mlx_suppression_rule_083>
   Memcheck:Leak
   match-leak-kinds: definite
   fun:calloc
   fun:_ZN4objc8DenseMapIP10objc_classS2_NS_17DenseMapValueInfoIS2_EENS_12DenseMapInfoIS2_EENS_6detail12DenseMapPairIS2_S2_EEE4growEj
   fun:_ZN10objc_class11mangledNameEv
   fun:_ZL16addRemappedClassP10objc_classS0_
   fun:objc_initializeClassPair
   fun:objc_registerClassPair
   fun:__CFStringCreateImmutableFunnel3
   fun:__CFInitialize
   fun:_ZN16ImageLoaderMachO11doImageInitERKN11ImageLoader11LinkContextE
   fun:_ZN16ImageLoaderMachO16doInitializationERKN11ImageLoader11LinkContextE
   fun:_ZN11ImageLoader23recursiveInitializationERKNS_11LinkContextEjPKcRNS_21InitializerTimingListERNS_15UninitedUpwardsE
   fun:_ZN11ImageLoader23recursiveInitializationERKNS_11LinkContextEjPKcRNS_21InitializerTimingListERNS_15UninitedUpwardsE
}
{
   <mlx_suppression_rule_084>
   Memcheck:Leak
   match-leak-kinds: definite
   fun:calloc
   fun:_ZN4objc8DenseMapIP10objc_classS2_NS_17DenseMapValueInfoIS2_EENS_12DenseMapInfoIS2_EENS_6detail12DenseMapPairIS2_S2_EEE4growEj
   fun:_ZL16addRemappedClassP10objc_classS0_
   fun:objc_initializeClassPair
   fun:objc_registerClassPair
   fun:__CFStringCreateImmutableFunnel3
   fun:__CFInitializeLinkCheck
   fun:_ZN16ImageLoaderMachO11doImageInitERKN11ImageLoader11LinkContextE
   fun:_ZN16ImageLoaderMachO16doInitializationERKN11ImageLoader11LinkContextE
   fun:_ZN11ImageLoader23recursiveInitializationERKNS_11LinkContextEjPKcRNS_21InitializerTimingListERNS_15UninitedUpwardsE
   fun:_ZN11ImageLoader23recursiveInitializationERKNS_11LinkContextEjPKcRNS_21InitializerTimingListERNS_15UninitedUpwardsE
   fun:_ZN11ImageLoader23recursiveInitializationERKNS_11LinkContextEjPKcRNS_21InitializerTimingListERNS_15UninitedUpwardsE
}
{
   <mlx_suppression_rule_085>
   Memcheck:Leak
   match-leak-kinds: definite
   fun:calloc
   fun:_ZN4objc8DenseMapIP10objc_classS2_NS_17DenseMapValueInfoIS2_EENS_12DenseMapInfoIS2_EENS_6detail12DenseMapPairIS2_S2_EEE4growEj
   fun:_ZN10objc_class11mangledNameEv
   fun:_ZL16addRemappedClassP10objc_classS0_
   fun:objc_initializeClassPair
   fun:objc_registerClassPair
   fun:__CFStringCreateImmutableFunnel3
   fun:__CFInitializeLinkCheck
   fun:_ZN16ImageLoaderMachO11doImageInitERKN11ImageLoader11LinkContextE
   fun:_ZN16ImageLoaderMachO16doInitializationERKN11ImageLoader11LinkContextE
   fun:_ZN11ImageLoader23recursiveInitializationERKNS_11LinkContextEjPKcRNS_21InitializerTimingListERNS_15UninitedUpwardsE
   fun:_ZN11ImageLoader23recursiveInitializationERKNS_11LinkContextEjPKcRNS_21InitializerTimingListERNS_15UninitedUpwardsE
}
{
   <mlx_suppression_rule_086>
   Memcheck:Leak
   match-leak-kinds: definite
   fun:calloc
   fun:_ZN4objc8DenseMapIP10objc_classS2_NS_17DenseMapValueInfoIS2_EENS_12DenseMapInfoIS2_EENS_6detail12DenseMapPairIS2_S2_EEE4growEj
   fun:_ZL16addRemappedClassP10objc_classS0_
   fun:objc_initializeClassPair
   fun:objc_registerClassPair
   fun:__CFStringCreateImmutableFunnel3
   fun:__CFInitializeLinkCheck
   fun:_ZN16ImageLoaderMachO11doImageInitERKN11ImageLoader11LinkContextE
   fun:_ZN16ImageLoaderMachO16doInitializationERKN11ImageLoader11LinkContextE
   fun:_ZN11ImageLoader23recursiveInitializationERKNS_11LinkContextEjPKcRNS_21InitializerTimingListERNS_15UninitedUpwardsE
   fun:_ZN11ImageLoader23recursiveInitializationERKNS_11LinkContextEjPKcRNS_21InitializerTimingListERNS_15UninitedUpwardsE
   fun:_ZN11ImageLoader23recursiveInitializationERKNS_11LinkContextEjPKcRNS_21InitializerTimingListERNS_15UninitedUpwardsE
}
{
   <mlx_suppression_rule_087>
   Memcheck:Leak
   match-leak-kinds: definite
   fun:calloc
   fun:_ZN4objc8DenseMapIP10objc_classS2_NS_17DenseMapValueInfoIS2_EENS_12DenseMapInfoIS2_EENS_6detail12DenseMapPairIS2_S2_EEE4growEj
   fun:_ZN10objc_class11mangledNameEv
   fun:_ZN10objc_class11mangledNameEv
   fun:_ZL16addRemappedClassP10objc_classS0_
   fun:objc_initializeClassPair
   fun:objc_registerClassPair
   fun:__CFStringCreateImmutableFunnel3
   fun:__CFInitializeLinkCheck
   fun:_ZN16ImageLoaderMachO11doImageInitERKN11ImageLoader11LinkContextE
   fun:_ZN16ImageLoaderMachO16doInitializationERKN11ImageLoader11LinkContextE
   fun:_ZN11ImageLoader23recursiveInitializationERKNS_11LinkContextEjPKcRNS_21InitializerTimingListERNS_15UninitedUpwardsE
}
{
   <mlx_suppression_rule_088>
   Memcheck:Leak
   match-leak-kinds: definite
   fun:calloc
   fun:_ZN4objc8DenseMapIP10objc_classS2_NS_17DenseMapValueInfoIS2_EENS_12DenseMapInfoIS2_EENS_6detail12DenseMapPairIS2_S2_EEE4growEj
   fun:_ZN10objc_class11mangledNameEv
   fun:_ZL16addRemappedClassP10objc_classS0_
   fun:objc_initializeClassPair
   fun:objc_registerClassPair
   fun:__CFStringCreateImmutableFunnel3
   fun:__CFInitializeLinkCheck
   fun:_ZN16ImageLoaderMachO11doImageInitERKN11ImageLoader11LinkContextE
   fun:_ZN16ImageLoaderMachO16doInitializationERKN11ImageLoader11LinkContextE
   fun:_ZN11ImageLoader23recursiveInitializationERKNS_11LinkContextEjPKcRNS_21InitializerTimingListERNS_15UninitedUpwardsE
   fun:_ZN11ImageLoader23recursiveInitializationERKNS_11LinkContextEjPKcRNS_21InitializerTimingListERNS_15UninitedUpwardsE
}
{
   <mlx_suppression_rule_089>
   Memcheck:Leak
   match-leak-kinds: definite
   fun:calloc
   fun:_ZN4objc8DenseMapIP10objc_classS2_NS_17DenseMapValueInfoIS2_EENS_12DenseMapInfoIS2_EENS_6detail12DenseMapPairIS2_S2_EEE4growEj
   fun:_ZL16addRemappedClassP10objc_classS0_
   fun:objc_initializeClassPair
   fun:objc_registerClassPair
   fun:__CFStringCreateImmutableFunnel3
   fun:__CFInitializeLinkCheck
   fun:_ZN16ImageLoaderMachO11doImageInitERKN11ImageLoader11LinkContextE
   fun:_ZN16ImageLoaderMachO16doInitializationERKN11ImageLoader11LinkContextE
   fun:_ZN11ImageLoader23recursiveInitializationERKNS_11LinkContextEjPKcRNS_21InitializerTimingListERNS_15UninitedUpwardsE
   fun:_ZN11ImageLoader23recursiveInitializationERKNS_11LinkContextEjPKcRNS_21InitializerTimingListERNS_15UninitedUpwardsE
   fun:_ZN11ImageLoader23recursiveInitializationERKNS_11LinkContextEjPKcRNS_21InitializerTimingListERNS_15UninitedUpwardsE
}
{
   <mlx_suppression_rule_090>
   Memcheck:Leak
   match-leak-kinds: definite
   fun:calloc
   fun:_ZN4objc8DenseMapIP10objc_classS2_NS_17DenseMapValueInfoIS2_EENS_12DenseMapInfoIS2_EENS_6detail12DenseMapPairIS2_S2_EEE4growEj
   fun:_ZN10objc_class11mangledNameEv
   fun:_ZL16addRemappedClassP10objc_classS0_
   fun:objc_initializeClassPair
   fun:objc_registerClassPair
   fun:__CFStringCreateImmutableFunnel3
   fun:__CFInitializeLinkCheck
   fun:_ZN16ImageLoaderMachO11doImageInitERKN11ImageLoader11LinkContextE
   fun:_ZN16ImageLoaderMachO16doInitializationERKN11ImageLoader11LinkContextE
   fun:_ZN11ImageLoader23recursiveInitializationERKNS_11LinkContextEjPKcRNS_21InitializerTimingListERNS_15UninitedUpwardsE
   fun:_ZN11ImageLoader23recursiveInitializationERKNS_11LinkContextEjPKcRNS_21InitializerTimingListERNS_15UninitedUpwardsE
}
{
   <mlx_suppression_rule_091>
   Memcheck:Leak
   match-leak-kinds: definite
   fun:calloc
   fun:_ZN4objc8DenseMapIP10objc_classS2_NS_17DenseMapValueInfoIS2_EENS_12DenseMapInfoIS2_EENS_6detail12DenseMapPairIS2_S2_EEE4growEj
   fun:_ZL16addRemappedClassP10objc_classS0_
   fun:objc_initializeClassPair
   fun:objc_registerClassPair
   fun:__CFStringCreateImmutableFunnel3
   fun:__CFInitializeLinkCheck
   fun:_ZN16ImageLoaderMachO11doImageInitERKN11ImageLoader11LinkContextE
   fun:_ZN16ImageLoaderMachO16doInitializationERKN11ImageLoader11LinkContextE
   fun:_ZN11ImageLoader23recursiveInitializationERKNS_11LinkContextEjPKcRNS_21InitializerTimingListERNS_15UninitedUpwardsE
   fun:_ZN11ImageLoader23recursiveInitializationERKNS_11LinkContextEjPKcRNS_21InitializerTimingListERNS_15UninitedUpwardsE
   fun:_ZN11ImageLoader23recursiveInitializationERKNS_11LinkContextEjPKcRNS_21InitializerTimingListERNS_15UninitedUpwardsE
}
{
   <mlx_suppression_rule_092>
   Memcheck:Leak
   match-leak-kinds: definite
   fun:calloc
   fun:_ZN4objc8DenseMapIP10objc_classS2_NS_17DenseMapValueInfoIS2_EENS_12DenseMapInfoIS2_EENS_6detail12DenseMapPairIS2_S2_EEE4growEj
   fun:_ZN10objc_class11mangledNameEv
   fun:_ZL16addRemappedClassP10objc_classS0_
   fun:objc_initializeClassPair
   fun:objc_registerClassPair
   fun:__CFStringCreateImmutableFunnel3
   fun:__CFInitializeLinkCheck
   fun:_ZN16ImageLoaderMachO11doImageInitERKN11ImageLoader11LinkContextE
   fun:_ZN16ImageLoaderMachO16doInitializationERKN11ImageLoader11LinkContextE
   fun:_ZN11ImageLoader23recursiveInitializationERKNS_11LinkContextEjPKcRNS_21InitializerTimingListERNS_15UninitedUpwardsE
   fun:_ZN11ImageLoader23recursiveInitializationERKNS_11LinkContextEjPKcRNS_21InitializerTimingListERNS_15UninitedUpwardsE
}
{
   <mlx_suppression_rule_093>
   Memcheck:Leak
   match-leak-kinds: definite
   fun:calloc
   fun:_ZN4objc8DenseMapIP10objc_classS2_NS_17DenseMapValueInfoIS2_EENS_12DenseMapInfoIS2_EENS_6detail12DenseMapPairIS2_S2_EEE4growEj
   fun:_ZL16addRemappedClassP10objc_classS0_
   fun:objc_initializeClassPair
   fun:objc_registerClassPair
   fun:__CFStringCreateImmutableFunnel3
   fun:__CFInitializeLinkCheck
   fun:_ZN16ImageLoaderMachO11doImageInitERKN11ImageLoader11LinkContextE
   fun:_ZN16ImageLoaderMachO16doInitializationERKN11ImageLoader11LinkContextE
   fun:_ZN11ImageLoader23recursiveInitializationERKNS_11LinkContextEjPKcRNS_21InitializerTimingListERNS_15UninitedUpwardsE
   fun:_ZN11ImageLoader23recursiveInitializationERKNS_11LinkContextEjPKcRNS_21InitializerTimingListERNS_15UninitedUpwardsE
   fun:_ZN11ImageLoader23recursiveInitializationERKNS_11LinkContextEjPKcRNS_21InitializerTimingListERNS_15UninitedUpwardsE
}
{
   <mlx_suppression_rule_094>
   Memcheck:Leak
   match-leak-kinds: definite
   fun:calloc
   fun:_ZN4objc8DenseMapIP10objc_classS2_NS_17DenseMapValueInfoIS2_EENS_12DenseMapInfoIS2_EENS_6detail12DenseMapPairIS2_S2_EEE4growEj
   fun:_ZN10objc_class11mangledNameEv
   fun:_ZL16addRemappedClassP10objc_classS0_
   fun:objc_initializeClassPair
   fun:objc_registerClassPair
   fun:__CFStringCreateImmutableFunnel3
   fun:__CFInitializeLinkCheck
   fun:_ZN16ImageLoaderMachO11doImageInitERKN11ImageLoader11LinkContextE
   fun:_ZN16ImageLoaderMachO16doInitializationERKN11ImageLoader11LinkContextE
   fun:_ZN11ImageLoader23recursiveInitializationERKNS_11LinkContextEjPKcRNS_21InitializerTimingListERNS_15UninitedUpwardsE
   fun:_ZN11ImageLoader23recursiveInitializationERKNS_11LinkContextEjPKcRNS_21InitializerTimingListERNS_15UninitedUpwardsE
}
{
   <mlx_suppression_rule_095>
   Memcheck:Leak
   match-leak-kinds: definite
   fun:calloc
   fun:_ZN4objc8DenseMapIP10objc_classS2_NS_17DenseMapValueInfoIS2_EENS_12DenseMapInfoIS2_EENS_6detail12DenseMapPairIS2_S2_EEE4growEj
   fun:_ZL16addRemappedClassP10objc_classS0_
   fun:objc_initializeClassPair
   fun:objc_registerClassPair
   fun:__CFStringCreateImmutableFunnel3
   fun:__CFInitializeLinkCheck
   fun:_ZN16ImageLoaderMachO11doImageInitERKN11ImageLoader11LinkContextE
   fun:_ZN16ImageLoaderMachO16doInitializationERKN11ImageLoader11LinkContextE
   fun:_ZN11ImageLoader23recursiveInitializationERKNS_11LinkContextEjPKcRNS_21InitializerTimingListERNS_15UninitedUpwardsE
   fun:_ZN11ImageLoader23recursiveInitializationERKNS_11LinkContextEjPKcRNS_21InitializerTimingListERNS_15UninitedUpwardsE
   fun:_ZN11ImageLoader23recursiveInitializationERKNS_11LinkContextEjPKcRNS_21InitializerTimingListERNS_15UninitedUpwardsE
}
{
   <mlx_suppression_rule_096>
   Memcheck:Leak
   match-leak-kinds: definite
   fun:calloc
   fun:_ZN4objc8DenseMapIP10objc_classS2_NS_17DenseMapValueInfoIS2_EENS_12DenseMapInfoIS2_EENS_6detail12DenseMapPairIS2_S2_EEE4growEj
   fun:_ZN10objc_class11mangledNameEv
   fun:_ZL16addRemappedClassP10objc_classS0_
   fun:objc_initializeClassPair
   fun:objc_registerClassPair
   fun:__CFStringCreateImmutableFunnel3
   fun:__CFInitializeLinkCheck
   fun:_ZN16ImageLoaderMachO11doImageInitERKN11ImageLoader11LinkContextE
   fun:_ZN16ImageLoaderMachO16doInitializationERKN11ImageLoader11LinkContextE
   fun:_ZN11ImageLoader23recursiveInitializationERKNS_11LinkContextEjPKcRNS_21InitializerTimingListERNS_15UninitedUpwardsE
   fun:_ZN11ImageLoader23recursiveInitializationERKNS_11LinkContextEjPKcRNS_21InitializerTimingListERNS_15UninitedUpwardsE
}
{
   <mlx_suppression_rule_097>
   Memcheck:Leak
   match-leak-kinds: definite
   fun:calloc
   fun:_ZN4objc8DenseMapIP10objc_classS2_NS_17DenseMapValueInfoIS2_EENS_12DenseMapInfoIS2_EENS_6detail12DenseMapPairIS2_S2_EEE4growEj
   fun:_ZL16addRemappedClassP10objc_classS0_
   fun:objc_initializeClassPair
   fun:_CFProcessPath
   fun:_dispatch_client_callout
   fun:_dispatch_once_callout
   fun:_CFProcessPath
   fun:_CFLibraryVersionCompare
   fun:_ZN16ImageLoaderMachO11doImageInitERKN11ImageLoader11LinkContextE
   fun:_ZN16ImageLoaderMachO16doInitializationERKN11ImageLoader11LinkContextE
   fun:_ZN11ImageLoader23recursiveInitializationERKNS_11LinkContextEjPKcRNS_21InitializerTimingListERNS_15UninitedUpwardsE
}
{
   <mlx_suppression_rule_098>
   Memcheck:Leak
   match-leak-kinds: definite
   fun:calloc
   fun:_ZN4objc8DenseMapIP10objc_classS2_NS_17DenseMapValueInfoIS2_EENS_12DenseMapInfoIS2_EENS_6detail12DenseMapPairIS2_S2_EEE4growEj
   fun:_ZN10objc_class11mangledNameEv
   fun:_ZL16addRemappedClassP10objc_classS0_
   fun:objc_initializeClassPair
   fun:_CFProcessPath
   fun:_dispatch_client_callout
   fun:_dispatch_once_callout
   fun:_CFProcessPath
   fun:_CFLibraryVersionCompare
   fun:_ZN16ImageLoaderMachO11doImageInitERKN11ImageLoader11LinkContextE
   fun:_ZN16ImageLoaderMachO16doInitializationERKN11ImageLoader11LinkContextE
}
{
   <mlx_suppression_rule_099>
   Memcheck:Leak
   match-leak-kinds: definite
   fun:calloc
   fun:_ZN4objc8DenseMapIP10objc_classS2_NS_17DenseMapValueInfoIS2_EENS_12DenseMapInfoIS2_EENS_6detail12DenseMapPairIS2_S2_EEE4growEj
   fun:_ZL16addRemappedClassP10objc_classS0_
   fun:_Z15allocateBucketsj
   fun:lookUpImpOrForward
   fun:_CFLocaleCopyCurrentGuts
   fun:_CFLibraryVersionCompare
   fun:_ZN16ImageLoaderMachO11doImageInitERKN11ImageLoader11LinkContextE
   fun:_ZN16ImageLoaderMachO16doInitializationERKN11ImageLoader11LinkContextE
   fun:_ZN11ImageLoader23recursiveInitializationERKNS_11LinkContextEjPKcRNS_21InitializerTimingListERNS_15UninitedUpwardsE
   fun:_ZN11ImageLoader23recursiveInitializationERKNS_11LinkContextEjPKcRNS_21InitializerTimingListERNS_15UninitedUpwardsE
   fun:_ZN11ImageLoader23recursiveInitializationERKNS_11LinkContextEjPKcRNS_21InitializerTimingListERNS_15UninitedUpwardsE
}
{
   <mlx_suppression_rule_101>
   Memcheck:Leak
   match-leak-kinds: definite
   fun:calloc
   fun:_ZN4objc8DenseMapIP10objc_classS2_NS_17DenseMapValueInfoIS2_EENS_12DenseMapInfoIS2_EENS_6detail12DenseMapPairIS2_S2_EEE4growEj
   fun:_ZL16addRemappedClassP10objc_classS0_
   fun:_ZL24realizeClassWithoutSwiftP10objc_classS0_
   fun:-[NSObject dealloc]
   fun:lookUpImpOrForward
   fun:_CFLocaleCopyCurrentGuts
   fun:_CFLibraryVersionCompare
   fun:_ZN16ImageLoaderMachO11doImageInitERKN11ImageLoader11LinkContextE
   fun:_ZN16ImageLoaderMachO16doInitializationERKN11ImageLoader11LinkContextE
   fun:_ZN11ImageLoader23recursiveInitializationERKNS_11LinkContextEjPKcRNS_21InitializerTimingListERNS_15UninitedUpwardsE
   fun:_ZN11ImageLoader23recursiveInitializationERKNS_11LinkContextEjPKcRNS_21InitializerTimingListERNS_15UninitedUpwardsE
}
{
   <mlx_suppression_rule_102>
   Memcheck:Leak
   match-leak-kinds: definite
   fun:calloc
   fun:_ZN4objc8DenseMapIP10objc_classS2_NS_17DenseMapValueInfoIS2_EENS_12DenseMapInfoIS2_EENS_6detail12DenseMapPairIS2_S2_EEE4growEj
   fun:_ZL16addRemappedClassP10objc_classS0_
   fun:objc_initializeClassPair
   fun:__NSCFDictionaryCreateMutable
   fun:_CFStringGetUserDefaultEncoding
   fun:_ZN16ImageLoaderMachO11doImageInitERKN11ImageLoader11LinkContextE
   fun:_ZN16ImageLoaderMachO16doInitializationERKN11ImageLoader11LinkContextE
   fun:_ZN11ImageLoader23recursiveInitializationERKNS_11LinkContextEjPKcRNS_21InitializerTimingListERNS_15UninitedUpwardsE
   fun:_ZN11ImageLoader23recursiveInitializationERKNS_11LinkContextEjPKcRNS_21InitializerTimingListERNS_15UninitedUpwardsE
   fun:_ZN11ImageLoader23recursiveInitializationERKNS_11LinkContextEjPKcRNS_21InitializerTimingListERNS_15UninitedUpwardsE
   fun:_ZN11ImageLoader23recursiveInitializationERKNS_11LinkContextEjPKcRNS_21InitializerTimingListERNS_15UninitedUpwardsE
}
{
   <mlx_suppression_rule_103>
   Memcheck:Leak
   match-leak-kinds: definite
   fun:calloc
   fun:_ZN4objc8DenseMapIP10objc_classS2_NS_17DenseMapValueInfoIS2_EENS_12DenseMapInfoIS2_EENS_6detail12DenseMapPairIS2_S2_EEE4growEj
   fun:_ZN10objc_class11mangledNameEv
   fun:_ZL16addRemappedClassP10objc_classS0_
   fun:objc_initializeClassPair
   fun:__NSCFDictionaryCreateMutable
   fun:_CFStringGetUserDefaultEncoding
   fun:_ZN16ImageLoaderMachO11doImageInitERKN11ImageLoader11LinkContextE
   fun:_ZN16ImageLoaderMachO16doInitializationERKN11ImageLoader11LinkContextE
   fun:_ZN11ImageLoader23recursiveInitializationERKNS_11LinkContextEjPKcRNS_21InitializerTimingListERNS_15UninitedUpwardsE
   fun:_ZN11ImageLoader23recursiveInitializationERKNS_11LinkContextEjPKcRNS_21InitializerTimingListERNS_15UninitedUpwardsE
   fun:_ZN11ImageLoader23recursiveInitializationERKNS_11LinkContextEjPKcRNS_21InitializerTimingListERNS_15UninitedUpwardsE
}
{
   <mlx_suppression_rule_104>
   Memcheck:Leak
   match-leak-kinds: definite
   fun:calloc
   fun:_ZN4objc8DenseMapIP10objc_classS2_NS_17DenseMapValueInfoIS2_EENS_12DenseMapInfoIS2_EENS_6detail12DenseMapPairIS2_S2_EEE4growEj
   fun:_ZN10objc_class11mangledNameEv
   fun:_ZN10objc_class11mangledNameEv
   fun:_ZL16addRemappedClassP10objc_classS0_
   fun:objc_initializeClassPair
   fun:__NSCFDictionaryCreateMutable
   fun:_CFStringGetUserDefaultEncoding
   fun:_ZN16ImageLoaderMachO11doImageInitERKN11ImageLoader11LinkContextE
   fun:_ZN16ImageLoaderMachO16doInitializationERKN11ImageLoader11LinkContextE
   fun:_ZN11ImageLoader23recursiveInitializationERKNS_11LinkContextEjPKcRNS_21InitializerTimingListERNS_15UninitedUpwardsE
   fun:_ZN11ImageLoader23recursiveInitializationERKNS_11LinkContextEjPKcRNS_21InitializerTimingListERNS_15UninitedUpwardsE
}
{
   <mlx_suppression_rule_105>
   Memcheck:Leak
   match-leak-kinds: definite
   fun:calloc
   fun:_ZN4objc8DenseMapIP10objc_classS2_NS_17DenseMapValueInfoIS2_EENS_12DenseMapInfoIS2_EENS_6detail12DenseMapPairIS2_S2_EEE4growEj
   fun:_ZN10objc_class11mangledNameEv
   fun:_ZL16addRemappedClassP10objc_classS0_
   fun:objc_initializeClassPair
   fun:__NSCFDictionaryCreateMutable
   fun:_CFStringGetUserDefaultEncoding
   fun:_ZN16ImageLoaderMachO11doImageInitERKN11ImageLoader11LinkContextE
   fun:_ZN16ImageLoaderMachO16doInitializationERKN11ImageLoader11LinkContextE
   fun:_ZN11ImageLoader23recursiveInitializationERKNS_11LinkContextEjPKcRNS_21InitializerTimingListERNS_15UninitedUpwardsE
   fun:_ZN11ImageLoader23recursiveInitializationERKNS_11LinkContextEjPKcRNS_21InitializerTimingListERNS_15UninitedUpwardsE
   fun:_ZN11ImageLoader23recursiveInitializationERKNS_11LinkContextEjPKcRNS_21InitializerTimingListERNS_15UninitedUpwardsE
}
{
   <mlx_suppression_rule_106>
   Memcheck:Leak
   match-leak-kinds: definite
   fun:calloc
   fun:_ZN4objc8DenseMapIP10objc_classS2_NS_17DenseMapValueInfoIS2_EENS_12DenseMapInfoIS2_EENS_6detail12DenseMapPairIS2_S2_EEE4growEj
   fun:_ZL16addRemappedClassP10objc_classS0_
   fun:objc_initializeClassPair
   fun:__CFDictionaryCreateGeneric
   fun:_CFStringGetUserDefaultEncoding
   fun:_ZN16ImageLoaderMachO11doImageInitERKN11ImageLoader11LinkContextE
   fun:_ZN16ImageLoaderMachO16doInitializationERKN11ImageLoader11LinkContextE
   fun:_ZN11ImageLoader23recursiveInitializationERKNS_11LinkContextEjPKcRNS_21InitializerTimingListERNS_15UninitedUpwardsE
   fun:_ZN11ImageLoader23recursiveInitializationERKNS_11LinkContextEjPKcRNS_21InitializerTimingListERNS_15UninitedUpwardsE
   fun:_ZN11ImageLoader23recursiveInitializationERKNS_11LinkContextEjPKcRNS_21InitializerTimingListERNS_15UninitedUpwardsE
   fun:_ZN11ImageLoader23recursiveInitializationERKNS_11LinkContextEjPKcRNS_21InitializerTimingListERNS_15UninitedUpwardsE
}
{
   <mlx_suppression_rule_107>
   Memcheck:Leak
   match-leak-kinds: definite
   fun:calloc
   fun:_ZN4objc8DenseMapIP10objc_classS2_NS_17DenseMapValueInfoIS2_EENS_12DenseMapInfoIS2_EENS_6detail12DenseMapPairIS2_S2_EEE4growEj
   fun:_ZN10objc_class11mangledNameEv
   fun:_ZL16addRemappedClassP10objc_classS0_
   fun:objc_initializeClassPair
   fun:__CFDictionaryCreateGeneric
   fun:_CFStringGetUserDefaultEncoding
   fun:_ZN16ImageLoaderMachO11doImageInitERKN11ImageLoader11LinkContextE
   fun:_ZN16ImageLoaderMachO16doInitializationERKN11ImageLoader11LinkContextE
   fun:_ZN11ImageLoader23recursiveInitializationERKNS_11LinkContextEjPKcRNS_21InitializerTimingListERNS_15UninitedUpwardsE
   fun:_ZN11ImageLoader23recursiveInitializationERKNS_11LinkContextEjPKcRNS_21InitializerTimingListERNS_15UninitedUpwardsE
   fun:_ZN11ImageLoader23recursiveInitializationERKNS_11LinkContextEjPKcRNS_21InitializerTimingListERNS_15UninitedUpwardsE
}
{
   <mlx_suppression_rule_108>
   Memcheck:Leak
   match-leak-kinds: definite
   fun:calloc
   fun:_ZN4objc8DenseMapIP10objc_classS2_NS_17DenseMapValueInfoIS2_EENS_12DenseMapInfoIS2_EENS_6detail12DenseMapPairIS2_S2_EEE4growEj
   fun:_ZL16addRemappedClassP10objc_classS0_
   fun:objc_initializeClassPair
   fun:__CFDictionaryCreateGeneric
   fun:_CFStringGetUserDefaultEncoding
   fun:_ZN16ImageLoaderMachO11doImageInitERKN11ImageLoader11LinkContextE
   fun:_ZN16ImageLoaderMachO16doInitializationERKN11ImageLoader11LinkContextE
   fun:_ZN11ImageLoader23recursiveInitializationERKNS_11LinkContextEjPKcRNS_21InitializerTimingListERNS_15UninitedUpwardsE
   fun:_ZN11ImageLoader23recursiveInitializationERKNS_11LinkContextEjPKcRNS_21InitializerTimingListERNS_15UninitedUpwardsE
   fun:_ZN11ImageLoader23recursiveInitializationERKNS_11LinkContextEjPKcRNS_21InitializerTimingListERNS_15UninitedUpwardsE
   fun:_ZN11ImageLoader23recursiveInitializationERKNS_11LinkContextEjPKcRNS_21InitializerTimingListERNS_15UninitedUpwardsE
}
{
   <mlx_suppression_rule_109>
   Memcheck:Leak
   match-leak-kinds: definite
   fun:calloc
   fun:_ZN4objc8DenseMapIP10objc_classS2_NS_17DenseMapValueInfoIS2_EENS_12DenseMapInfoIS2_EENS_6detail12DenseMapPairIS2_S2_EEE4growEj
   fun:_ZN10objc_class11mangledNameEv
   fun:_ZL16addRemappedClassP10objc_classS0_
   fun:objc_initializeClassPair
   fun:__CFDictionaryCreateGeneric
   fun:_CFStringGetUserDefaultEncoding
   fun:_ZN16ImageLoaderMachO11doImageInitERKN11ImageLoader11LinkContextE
   fun:_ZN16ImageLoaderMachO16doInitializationERKN11ImageLoader11LinkContextE
   fun:_ZN11ImageLoader23recursiveInitializationERKNS_11LinkContextEjPKcRNS_21InitializerTimingListERNS_15UninitedUpwardsE
   fun:_ZN11ImageLoader23recursiveInitializationERKNS_11LinkContextEjPKcRNS_21InitializerTimingListERNS_15UninitedUpwardsE
   fun:_ZN11ImageLoader23recursiveInitializationERKNS_11LinkContextEjPKcRNS_21InitializerTimingListERNS_15UninitedUpwardsE
}
{
   <mlx_suppression_rule_110>
   Memcheck:Leak
   match-leak-kinds: definite
   fun:calloc
   fun:_ZN4objc8DenseMapIP10objc_classS2_NS_17DenseMapValueInfoIS2_EENS_12DenseMapInfoIS2_EENS_6detail12DenseMapPairIS2_S2_EEE4growEj
   fun:_ZL16addRemappedClassP10objc_classS0_
   fun:objc_initializeClassPair
   fun:__CFDictionaryCreateGeneric
   fun:_CFStringGetUserDefaultEncoding
   fun:_ZN16ImageLoaderMachO11doImageInitERKN11ImageLoader11LinkContextE
   fun:_ZN16ImageLoaderMachO16doInitializationERKN11ImageLoader11LinkContextE
   fun:_ZN11ImageLoader23recursiveInitializationERKNS_11LinkContextEjPKcRNS_21InitializerTimingListERNS_15UninitedUpwardsE
   fun:_ZN11ImageLoader23recursiveInitializationERKNS_11LinkContextEjPKcRNS_21InitializerTimingListERNS_15UninitedUpwardsE
   fun:_ZN11ImageLoader23recursiveInitializationERKNS_11LinkContextEjPKcRNS_21InitializerTimingListERNS_15UninitedUpwardsE
   fun:_ZN11ImageLoader23recursiveInitializationERKNS_11LinkContextEjPKcRNS_21InitializerTimingListERNS_15UninitedUpwardsE
}
{
   <mlx_suppression_rule_111>
   Memcheck:Leak
   match-leak-kinds: definite
   fun:calloc
   fun:_ZN4objc8DenseMapIP10objc_classS2_NS_17DenseMapValueInfoIS2_EENS_12DenseMapInfoIS2_EENS_6detail12DenseMapPairIS2_S2_EEE4growEj
   fun:_ZN10objc_class11mangledNameEv
   fun:_ZL16addRemappedClassP10objc_classS0_
   fun:objc_initializeClassPair
   fun:__CFDictionaryCreateGeneric
   fun:_CFStringGetUserDefaultEncoding
   fun:_ZN16ImageLoaderMachO11doImageInitERKN11ImageLoader11LinkContextE
   fun:_ZN16ImageLoaderMachO16doInitializationERKN11ImageLoader11LinkContextE
   fun:_ZN11ImageLoader23recursiveInitializationERKNS_11LinkContextEjPKcRNS_21InitializerTimingListERNS_15UninitedUpwardsE
   fun:_ZN11ImageLoader23recursiveInitializationERKNS_11LinkContextEjPKcRNS_21InitializerTimingListERNS_15UninitedUpwardsE
   fun:_ZN11ImageLoader23recursiveInitializationERKNS_11LinkContextEjPKcRNS_21InitializerTimingListERNS_15UninitedUpwardsE
}
{
   <mlx_suppression_rule_112>
   Memcheck:Leak
   match-leak-kinds: definite
   fun:calloc
   fun:_ZN4objc8DenseMapIP10objc_classS2_NS_17DenseMapValueInfoIS2_EENS_12DenseMapInfoIS2_EENS_6detail12DenseMapPairIS2_S2_EEE4growEj
   fun:_ZL16addRemappedClassP10objc_classS0_
   fun:objc_initializeClassPair
   fun:__CFDictionaryCreateGeneric
   fun:_CFStringGetUserDefaultEncoding
   fun:_ZN16ImageLoaderMachO11doImageInitERKN11ImageLoader11LinkContextE
   fun:_ZN16ImageLoaderMachO16doInitializationERKN11ImageLoader11LinkContextE
   fun:_ZN11ImageLoader23recursiveInitializationERKNS_11LinkContextEjPKcRNS_21InitializerTimingListERNS_15UninitedUpwardsE
   fun:_ZN11ImageLoader23recursiveInitializationERKNS_11LinkContextEjPKcRNS_21InitializerTimingListERNS_15UninitedUpwardsE
   fun:_ZN11ImageLoader23recursiveInitializationERKNS_11LinkContextEjPKcRNS_21InitializerTimingListERNS_15UninitedUpwardsE
   fun:_ZN11ImageLoader23recursiveInitializationERKNS_11LinkContextEjPKcRNS_21InitializerTimingListERNS_15UninitedUpwardsE
}
{
   <mlx_suppression_rule_113>
   Memcheck:Leak
   match-leak-kinds: definite
   fun:calloc
   fun:_ZN4objc8DenseMapIP10objc_classS2_NS_17DenseMapValueInfoIS2_EENS_12DenseMapInfoIS2_EENS_6detail12DenseMapPairIS2_S2_EEE4growEj
   fun:_ZN10objc_class11mangledNameEv
   fun:_ZL16addRemappedClassP10objc_classS0_
   fun:objc_initializeClassPair
   fun:__CFDictionaryCreateGeneric
   fun:_CFStringGetUserDefaultEncoding
   fun:_ZN16ImageLoaderMachO11doImageInitERKN11ImageLoader11LinkContextE
   fun:_ZN16ImageLoaderMachO16doInitializationERKN11ImageLoader11LinkContextE
   fun:_ZN11ImageLoader23recursiveInitializationERKNS_11LinkContextEjPKcRNS_21InitializerTimingListERNS_15UninitedUpwardsE
   fun:_ZN11ImageLoader23recursiveInitializationERKNS_11LinkContextEjPKcRNS_21InitializerTimingListERNS_15UninitedUpwardsE
   fun:_ZN11ImageLoader23recursiveInitializationERKNS_11LinkContextEjPKcRNS_21InitializerTimingListERNS_15UninitedUpwardsE
}
{
   <mlx_suppression_rule_114>
   Memcheck:Leak
   match-leak-kinds: definite
   fun:calloc
   fun:_ZN4objc8DenseMapIP10objc_classS2_NS_17DenseMapValueInfoIS2_EENS_12DenseMapInfoIS2_EENS_6detail12DenseMapPairIS2_S2_EEE4growEj
   fun:_ZL16addRemappedClassP10objc_classS0_
   fun:objc_initializeClassPair
   fun:CFBasicHashCreate
   fun:_CFStringGetUserDefaultEncoding
   fun:_ZN16ImageLoaderMachO11doImageInitERKN11ImageLoader11LinkContextE
   fun:_ZN16ImageLoaderMachO16doInitializationERKN11ImageLoader11LinkContextE
   fun:_ZN11ImageLoader23recursiveInitializationERKNS_11LinkContextEjPKcRNS_21InitializerTimingListERNS_15UninitedUpwardsE
   fun:_ZN11ImageLoader23recursiveInitializationERKNS_11LinkContextEjPKcRNS_21InitializerTimingListERNS_15UninitedUpwardsE
   fun:_ZN11ImageLoader23recursiveInitializationERKNS_11LinkContextEjPKcRNS_21InitializerTimingListERNS_15UninitedUpwardsE
   fun:_ZN11ImageLoader23recursiveInitializationERKNS_11LinkContextEjPKcRNS_21InitializerTimingListERNS_15UninitedUpwardsE
}
{
   <mlx_suppression_rule_115>
   Memcheck:Leak
   match-leak-kinds: definite
   fun:calloc
   fun:_ZN4objc8DenseMapIP10objc_classS2_NS_17DenseMapValueInfoIS2_EENS_12DenseMapInfoIS2_EENS_6detail12DenseMapPairIS2_S2_EEE4growEj
   fun:_ZN10objc_class11mangledNameEv
   fun:_ZL16addRemappedClassP10objc_classS0_
   fun:objc_initializeClassPair
   fun:CFBasicHashCreate
   fun:_CFStringGetUserDefaultEncoding
   fun:_ZN16ImageLoaderMachO11doImageInitERKN11ImageLoader11LinkContextE
   fun:_ZN16ImageLoaderMachO16doInitializationERKN11ImageLoader11LinkContextE
   fun:_ZN11ImageLoader23recursiveInitializationERKNS_11LinkContextEjPKcRNS_21InitializerTimingListERNS_15UninitedUpwardsE
   fun:_ZN11ImageLoader23recursiveInitializationERKNS_11LinkContextEjPKcRNS_21InitializerTimingListERNS_15UninitedUpwardsE
   fun:_ZN11ImageLoader23recursiveInitializationERKNS_11LinkContextEjPKcRNS_21InitializerTimingListERNS_15UninitedUpwardsE
}
{
   <mlx_suppression_rule_116>
   Memcheck:Leak
   match-leak-kinds: definite
   fun:calloc
   fun:_ZN4objc8DenseMapIP10objc_classS2_NS_17DenseMapValueInfoIS2_EENS_12DenseMapInfoIS2_EENS_6detail12DenseMapPairIS2_S2_EEE4growEj
   fun:_ZN10objc_class11mangledNameEv
   fun:_ZL16addRemappedClassP10objc_classS0_
   fun:objc_initializeClassPair
   fun:_NSToDoAtProcessStart
   fun:_NSInitializePlatform
   fun:objc_msgLookup_fpret
   fun:_ZN4dyldL12notifySingleE17dyld_image_statesPK11ImageLoaderPNS1_21InitializerTimingListE
   fun:_ZN11ImageLoader23recursiveInitializationERKNS_11LinkContextEjPKcRNS_21InitializerTimingListERNS_15UninitedUpwardsE
   fun:_ZN11ImageLoader23recursiveInitializationERKNS_11LinkContextEjPKcRNS_21InitializerTimingListERNS_15UninitedUpwardsE
   fun:_ZN11ImageLoader23recursiveInitializationERKNS_11LinkContextEjPKcRNS_21InitializerTimingListERNS_15UninitedUpwardsE
}
{
   <mlx_suppression_rule_117>
   Memcheck:Leak
   match-leak-kinds: definite
   fun:calloc
   fun:_ZN4objc8DenseMapIP10objc_classS2_NS_17DenseMapValueInfoIS2_EENS_12DenseMapInfoIS2_EENS_6detail12DenseMapPairIS2_S2_EEE4growEj
   fun:_ZL16addRemappedClassP10objc_classS0_
   fun:objc_initializeClassPair
   fun:_NSToDoAtProcessStart
   fun:_NSInitializePlatform
   fun:objc_msgLookup_fpret
   fun:_ZN4dyldL12notifySingleE17dyld_image_statesPK11ImageLoaderPNS1_21InitializerTimingListE
   fun:_ZN11ImageLoader23recursiveInitializationERKNS_11LinkContextEjPKcRNS_21InitializerTimingListERNS_15UninitedUpwardsE
   fun:_ZN11ImageLoader23recursiveInitializationERKNS_11LinkContextEjPKcRNS_21InitializerTimingListERNS_15UninitedUpwardsE
   fun:_ZN11ImageLoader23recursiveInitializationERKNS_11LinkContextEjPKcRNS_21InitializerTimingListERNS_15UninitedUpwardsE
   fun:_ZN11ImageLoader23recursiveInitializationERKNS_11LinkContextEjPKcRNS_21InitializerTimingListERNS_15UninitedUpwardsE
}
{
   <mlx_suppression_rule_118>
   Memcheck:Leak
   match-leak-kinds: definite
   fun:calloc
   fun:_ZN4objc8DenseMapIP10objc_classS2_NS_17DenseMapValueInfoIS2_EENS_12DenseMapInfoIS2_EENS_6detail12DenseMapPairIS2_S2_EEE4growEj
   fun:_ZN10objc_class11mangledNameEv
   fun:_ZL16addRemappedClassP10objc_classS0_
   fun:objc_initializeClassPair
   fun:_NSToDoAtProcessStart
   fun:_NSInitializePlatform
   fun:objc_msgLookup_fpret
   fun:_ZN4dyldL12notifySingleE17dyld_image_statesPK11ImageLoaderPNS1_21InitializerTimingListE
   fun:_ZN11ImageLoader23recursiveInitializationERKNS_11LinkContextEjPKcRNS_21InitializerTimingListERNS_15UninitedUpwardsE
   fun:_ZN11ImageLoader23recursiveInitializationERKNS_11LinkContextEjPKcRNS_21InitializerTimingListERNS_15UninitedUpwardsE
   fun:_ZN11ImageLoader23recursiveInitializationERKNS_11LinkContextEjPKcRNS_21InitializerTimingListERNS_15UninitedUpwardsE
}
{
   <mlx_suppression_rule_119>
   Memcheck:Leak
   match-leak-kinds: definite
   fun:calloc
   fun:_ZN4objc8DenseMapIP10objc_classS2_NS_17DenseMapValueInfoIS2_EENS_12DenseMapInfoIS2_EENS_6detail12DenseMapPairIS2_S2_EEE4growEj
   fun:_ZN10objc_class11mangledNameEv
   fun:_ZN10objc_class11mangledNameEv
   fun:_ZL16addRemappedClassP10objc_classS0_
   fun:objc_initializeClassPair
   fun:_NSToDoAtProcessStart
   fun:_NSInitializePlatform
   fun:objc_msgLookup_fpret
   fun:_ZN4dyldL12notifySingleE17dyld_image_statesPK11ImageLoaderPNS1_21InitializerTimingListE
   fun:_ZN11ImageLoader23recursiveInitializationERKNS_11LinkContextEjPKcRNS_21InitializerTimingListERNS_15UninitedUpwardsE
   fun:_ZN11ImageLoader23recursiveInitializationERKNS_11LinkContextEjPKcRNS_21InitializerTimingListERNS_15UninitedUpwardsE
}
{
   <mlx_suppression_rule_120>
   Memcheck:Leak
   match-leak-kinds: definite
   fun:calloc
   fun:_ZN4objc8DenseMapIP10objc_classS2_NS_17DenseMapValueInfoIS2_EENS_12DenseMapInfoIS2_EENS_6detail12DenseMapPairIS2_S2_EEE4growEj
   fun:_ZN10objc_class11mangledNameEv
   fun:_ZL16addRemappedClassP10objc_classS0_
   fun:objc_initializeClassPair
   fun:_NSToDoAtProcessStart
   fun:_NSInitializePlatform
   fun:objc_msgLookup_fpret
   fun:_ZN4dyldL12notifySingleE17dyld_image_statesPK11ImageLoaderPNS1_21InitializerTimingListE
   fun:_ZN11ImageLoader23recursiveInitializationERKNS_11LinkContextEjPKcRNS_21InitializerTimingListERNS_15UninitedUpwardsE
   fun:_ZN11ImageLoader23recursiveInitializationERKNS_11LinkContextEjPKcRNS_21InitializerTimingListERNS_15UninitedUpwardsE
   fun:_ZN11ImageLoader23recursiveInitializationERKNS_11LinkContextEjPKcRNS_21InitializerTimingListERNS_15UninitedUpwardsE
}
{
   <mlx_suppression_rule_121>
   Memcheck:Leak
   match-leak-kinds: definite
   fun:calloc
   fun:_ZN4objc8DenseMapIP10objc_classS2_NS_17DenseMapValueInfoIS2_EENS_12DenseMapInfoIS2_EENS_6detail12DenseMapPairIS2_S2_EEE4growEj
   fun:_ZN10objc_class11mangledNameEv
   fun:_ZL16addRemappedClassP10objc_classS0_
   fun:objc_initializeClassPair
   fun:_NSToDoAtProcessStart
   fun:_NSInitializePlatform
   fun:objc_msgLookup_fpret
   fun:_ZN4dyldL12notifySingleE17dyld_image_statesPK11ImageLoaderPNS1_21InitializerTimingListE
   fun:_ZN11ImageLoader23recursiveInitializationERKNS_11LinkContextEjPKcRNS_21InitializerTimingListERNS_15UninitedUpwardsE
   fun:_ZN11ImageLoader23recursiveInitializationERKNS_11LinkContextEjPKcRNS_21InitializerTimingListERNS_15UninitedUpwardsE
   fun:_ZN11ImageLoader23recursiveInitializationERKNS_11LinkContextEjPKcRNS_21InitializerTimingListERNS_15UninitedUpwardsE
}
{
   <mlx_suppression_rule_122>
   Memcheck:Leak
   match-leak-kinds: definite
   fun:calloc
   fun:_ZN4objc8DenseMapIP10objc_classS2_NS_17DenseMapValueInfoIS2_EENS_12DenseMapInfoIS2_EENS_6detail12DenseMapPairIS2_S2_EEE4growEj
   fun:_ZL16addRemappedClassP10objc_classS0_
   fun:objc_initializeClassPair
   fun:_NSToDoAtProcessStart
   fun:_NSInitializePlatform
   fun:objc_msgLookup_fpret
   fun:_ZN4dyldL12notifySingleE17dyld_image_statesPK11ImageLoaderPNS1_21InitializerTimingListE
   fun:_ZN11ImageLoader23recursiveInitializationERKNS_11LinkContextEjPKcRNS_21InitializerTimingListERNS_15UninitedUpwardsE
   fun:_ZN11ImageLoader23recursiveInitializationERKNS_11LinkContextEjPKcRNS_21InitializerTimingListERNS_15UninitedUpwardsE
   fun:_ZN11ImageLoader23recursiveInitializationERKNS_11LinkContextEjPKcRNS_21InitializerTimingListERNS_15UninitedUpwardsE
   fun:_ZN11ImageLoader23recursiveInitializationERKNS_11LinkContextEjPKcRNS_21InitializerTimingListERNS_15UninitedUpwardsE
}
{
   <mlx_suppression_rule_123>
   Memcheck:Leak
   match-leak-kinds: definite
   fun:calloc
   fun:_ZN4objc8DenseMapIP10objc_classS2_NS_17DenseMapValueInfoIS2_EENS_12DenseMapInfoIS2_EENS_6detail12DenseMapPairIS2_S2_EEE4growEj
   fun:_ZN10objc_class11mangledNameEv
   fun:_ZL16addRemappedClassP10objc_classS0_
   fun:objc_initializeClassPair
   fun:_NSToDoAtProcessStart
   fun:_NSInitializePlatform
   fun:objc_msgLookup_fpret
   fun:_ZN4dyldL12notifySingleE17dyld_image_statesPK11ImageLoaderPNS1_21InitializerTimingListE
   fun:_ZN11ImageLoader23recursiveInitializationERKNS_11LinkContextEjPKcRNS_21InitializerTimingListERNS_15UninitedUpwardsE
   fun:_ZN11ImageLoader23recursiveInitializationERKNS_11LinkContextEjPKcRNS_21InitializerTimingListERNS_15UninitedUpwardsE
   fun:_ZN11ImageLoader23recursiveInitializationERKNS_11LinkContextEjPKcRNS_21InitializerTimingListERNS_15UninitedUpwardsE
}
{
   <mlx_suppression_rule_124>
   Memcheck:Leak
   match-leak-kinds: definite
   fun:calloc
   fun:_ZN4objc8DenseMapIP10objc_classS2_NS_17DenseMapValueInfoIS2_EENS_12DenseMapInfoIS2_EENS_6detail12DenseMapPairIS2_S2_EEE4growEj
   fun:_ZL16addRemappedClassP10objc_classS0_
   fun:objc_initializeClassPair
   fun:_NSToDoAtProcessStart
   fun:_NSInitializePlatform
   fun:objc_msgLookup_fpret
   fun:_ZN4dyldL12notifySingleE17dyld_image_statesPK11ImageLoaderPNS1_21InitializerTimingListE
   fun:_ZN11ImageLoader23recursiveInitializationERKNS_11LinkContextEjPKcRNS_21InitializerTimingListERNS_15UninitedUpwardsE
   fun:_ZN11ImageLoader23recursiveInitializationERKNS_11LinkContextEjPKcRNS_21InitializerTimingListERNS_15UninitedUpwardsE
   fun:_ZN11ImageLoader23recursiveInitializationERKNS_11LinkContextEjPKcRNS_21InitializerTimingListERNS_15UninitedUpwardsE
   fun:_ZN11ImageLoader23recursiveInitializationERKNS_11LinkContextEjPKcRNS_21InitializerTimingListERNS_15UninitedUpwardsE
}
{
   <mlx_suppression_rule_125>
   Memcheck:Leak
   match-leak-kinds: definite
   fun:calloc
   fun:_ZN4objc8DenseMapIP10objc_classS2_NS_17DenseMapValueInfoIS2_EENS_12DenseMapInfoIS2_EENS_6detail12DenseMapPairIS2_S2_EEE4growEj
   fun:_ZN10objc_class11mangledNameEv
   fun:_ZL16addRemappedClassP10objc_classS0_
   fun:objc_initializeClassPair
   fun:_NSToDoAtProcessStart
   fun:_NSInitializePlatform
   fun:objc_msgLookup_fpret
   fun:_ZN4dyldL12notifySingleE17dyld_image_statesPK11ImageLoaderPNS1_21InitializerTimingListE
   fun:_ZN11ImageLoader23recursiveInitializationERKNS_11LinkContextEjPKcRNS_21InitializerTimingListERNS_15UninitedUpwardsE
   fun:_ZN11ImageLoader23recursiveInitializationERKNS_11LinkContextEjPKcRNS_21InitializerTimingListERNS_15UninitedUpwardsE
   fun:_ZN11ImageLoader23recursiveInitializationERKNS_11LinkContextEjPKcRNS_21InitializerTimingListERNS_15UninitedUpwardsE
}
{
   <mlx_suppression_rule_126>
   Memcheck:Leak
   match-leak-kinds: definite
   fun:calloc
   fun:_ZN4objc8DenseMapIP10objc_classS2_NS_17DenseMapValueInfoIS2_EENS_12DenseMapInfoIS2_EENS_6detail12DenseMapPairIS2_S2_EEE4growEj
   fun:_ZL16addRemappedClassP10objc_classS0_
   fun:objc_initializeClassPair
   fun:_NSToDoAtProcessStart
   fun:_NSInitializePlatform
   fun:objc_msgLookup_fpret
   fun:_ZN4dyldL12notifySingleE17dyld_image_statesPK11ImageLoaderPNS1_21InitializerTimingListE
   fun:_ZN11ImageLoader23recursiveInitializationERKNS_11LinkContextEjPKcRNS_21InitializerTimingListERNS_15UninitedUpwardsE
   fun:_ZN11ImageLoader23recursiveInitializationERKNS_11LinkContextEjPKcRNS_21InitializerTimingListERNS_15UninitedUpwardsE
   fun:_ZN11ImageLoader23recursiveInitializationERKNS_11LinkContextEjPKcRNS_21InitializerTimingListERNS_15UninitedUpwardsE
   fun:_ZN11ImageLoader23recursiveInitializationERKNS_11LinkContextEjPKcRNS_21InitializerTimingListERNS_15UninitedUpwardsE
}
{
   <mlx_suppression_rule_127>
   Memcheck:Leak
   match-leak-kinds: definite
   fun:calloc
   fun:_ZN4objc8DenseMapIP10objc_classS2_NS_17DenseMapValueInfoIS2_EENS_12DenseMapInfoIS2_EENS_6detail12DenseMapPairIS2_S2_EEE4growEj
   fun:_ZN10objc_class11mangledNameEv
   fun:_ZL16addRemappedClassP10objc_classS0_
   fun:objc_initializeClassPair
   fun:_NSToDoAtProcessStart
   fun:_NSInitializePlatform
   fun:objc_msgLookup_fpret
   fun:_ZN4dyldL12notifySingleE17dyld_image_statesPK11ImageLoaderPNS1_21InitializerTimingListE
   fun:_ZN11ImageLoader23recursiveInitializationERKNS_11LinkContextEjPKcRNS_21InitializerTimingListERNS_15UninitedUpwardsE
   fun:_ZN11ImageLoader23recursiveInitializationERKNS_11LinkContextEjPKcRNS_21InitializerTimingListERNS_15UninitedUpwardsE
   fun:_ZN11ImageLoader23recursiveInitializationERKNS_11LinkContextEjPKcRNS_21InitializerTimingListERNS_15UninitedUpwardsE
}
{
   <mlx_suppression_rule_128>
   Memcheck:Leak
   match-leak-kinds: definite
   fun:calloc
   fun:_ZN4objc8DenseMapIP10objc_classS2_NS_17DenseMapValueInfoIS2_EENS_12DenseMapInfoIS2_EENS_6detail12DenseMapPairIS2_S2_EEE4growEj
   fun:_ZL16addRemappedClassP10objc_classS0_
   fun:objc_initializeClassPair
   fun:_NSToDoAtProcessStart
   fun:_NSInitializePlatform
   fun:objc_msgLookup_fpret
   fun:_ZN4dyldL12notifySingleE17dyld_image_statesPK11ImageLoaderPNS1_21InitializerTimingListE
   fun:_ZN11ImageLoader23recursiveInitializationERKNS_11LinkContextEjPKcRNS_21InitializerTimingListERNS_15UninitedUpwardsE
   fun:_ZN11ImageLoader23recursiveInitializationERKNS_11LinkContextEjPKcRNS_21InitializerTimingListERNS_15UninitedUpwardsE
   fun:_ZN11ImageLoader23recursiveInitializationERKNS_11LinkContextEjPKcRNS_21InitializerTimingListERNS_15UninitedUpwardsE
   fun:_ZN11ImageLoader23recursiveInitializationERKNS_11LinkContextEjPKcRNS_21InitializerTimingListERNS_15UninitedUpwardsE
}
{
   <mlx_suppression_rule_129>
   Memcheck:Leak
   match-leak-kinds: definite
   fun:calloc
   fun:_ZN4objc8DenseMapIP10objc_classS2_NS_17DenseMapValueInfoIS2_EENS_12DenseMapInfoIS2_EENS_6detail12DenseMapPairIS2_S2_EEE4growEj
   fun:_ZN10objc_class11mangledNameEv
   fun:_ZL16addRemappedClassP10objc_classS0_
   fun:objc_initializeClassPair
   fun:_NSToDoAtProcessStart
   fun:_NSInitializePlatform
   fun:objc_msgLookup_fpret
   fun:_ZN4dyldL12notifySingleE17dyld_image_statesPK11ImageLoaderPNS1_21InitializerTimingListE
   fun:_ZN11ImageLoader23recursiveInitializationERKNS_11LinkContextEjPKcRNS_21InitializerTimingListERNS_15UninitedUpwardsE
   fun:_ZN11ImageLoader23recursiveInitializationERKNS_11LinkContextEjPKcRNS_21InitializerTimingListERNS_15UninitedUpwardsE
   fun:_ZN11ImageLoader23recursiveInitializationERKNS_11LinkContextEjPKcRNS_21InitializerTimingListERNS_15UninitedUpwardsE
}
{
   <mlx_suppression_rule_130>
   Memcheck:Leak
   match-leak-kinds: definite
   fun:calloc
   fun:_ZN4objc8DenseMapIP10objc_classS2_NS_17DenseMapValueInfoIS2_EENS_12DenseMapInfoIS2_EENS_6detail12DenseMapPairIS2_S2_EEE4growEj
   fun:_ZL16addRemappedClassP10objc_classS0_
   fun:objc_initializeClassPair
   fun:_NSToDoAtProcessStart
   fun:_NSInitializePlatform
   fun:objc_msgLookup_fpret
   fun:_ZN4dyldL12notifySingleE17dyld_image_statesPK11ImageLoaderPNS1_21InitializerTimingListE
   fun:_ZN11ImageLoader23recursiveInitializationERKNS_11LinkContextEjPKcRNS_21InitializerTimingListERNS_15UninitedUpwardsE
   fun:_ZN11ImageLoader23recursiveInitializationERKNS_11LinkContextEjPKcRNS_21InitializerTimingListERNS_15UninitedUpwardsE
   fun:_ZN11ImageLoader23recursiveInitializationERKNS_11LinkContextEjPKcRNS_21InitializerTimingListERNS_15UninitedUpwardsE
   fun:_ZN11ImageLoader23recursiveInitializationERKNS_11LinkContextEjPKcRNS_21InitializerTimingListERNS_15UninitedUpwardsE
}
{
   <mlx_suppression_rule_131>
   Memcheck:Leak
   match-leak-kinds: definite
   fun:calloc
   fun:_ZN4objc8DenseMapIP10objc_classS2_NS_17DenseMapValueInfoIS2_EENS_12DenseMapInfoIS2_EENS_6detail12DenseMapPairIS2_S2_EEE4growEj
   fun:_ZN10objc_class11mangledNameEv
   fun:_ZL16addRemappedClassP10objc_classS0_
   fun:objc_initializeClassPair
   fun:_NSToDoAtProcessStart
   fun:_NSInitializePlatform
   fun:objc_msgLookup_fpret
   fun:_ZN4dyldL12notifySingleE17dyld_image_statesPK11ImageLoaderPNS1_21InitializerTimingListE
   fun:_ZN11ImageLoader23recursiveInitializationERKNS_11LinkContextEjPKcRNS_21InitializerTimingListERNS_15UninitedUpwardsE
   fun:_ZN11ImageLoader23recursiveInitializationERKNS_11LinkContextEjPKcRNS_21InitializerTimingListERNS_15UninitedUpwardsE
   fun:_ZN11ImageLoader23recursiveInitializationERKNS_11LinkContextEjPKcRNS_21InitializerTimingListERNS_15UninitedUpwardsE
}
{
   <mlx_suppression_rule_132>
   Memcheck:Leak
   match-leak-kinds: definite
   fun:calloc
   fun:_ZN4objc8DenseMapIP10objc_classS2_NS_17DenseMapValueInfoIS2_EENS_12DenseMapInfoIS2_EENS_6detail12DenseMapPairIS2_S2_EEE4growEj
   fun:_ZL16addRemappedClassP10objc_classS0_
   fun:objc_initializeClassPair
   fun:_NSToDoAtProcessStart
   fun:_NSInitializePlatform
   fun:objc_msgLookup_fpret
   fun:_ZN4dyldL12notifySingleE17dyld_image_statesPK11ImageLoaderPNS1_21InitializerTimingListE
   fun:_ZN11ImageLoader23recursiveInitializationERKNS_11LinkContextEjPKcRNS_21InitializerTimingListERNS_15UninitedUpwardsE
   fun:_ZN11ImageLoader23recursiveInitializationERKNS_11LinkContextEjPKcRNS_21InitializerTimingListERNS_15UninitedUpwardsE
   fun:_ZN11ImageLoader23recursiveInitializationERKNS_11LinkContextEjPKcRNS_21InitializerTimingListERNS_15UninitedUpwardsE
   fun:_ZN11ImageLoader23recursiveInitializationERKNS_11LinkContextEjPKcRNS_21InitializerTimingListERNS_15UninitedUpwardsE
}
{
   <mlx_suppression_rule_133>
   Memcheck:Leak
   match-leak-kinds: definite
   fun:calloc
   fun:_ZN4objc8DenseMapIP10objc_classS2_NS_17DenseMapValueInfoIS2_EENS_12DenseMapInfoIS2_EENS_6detail12DenseMapPairIS2_S2_EEE4growEj
   fun:_ZN10objc_class11mangledNameEv
   fun:_ZL16addRemappedClassP10objc_classS0_
   fun:objc_initializeClassPair
   fun:_NSToDoAtProcessStart
   fun:_NSInitializePlatform
   fun:objc_msgLookup_fpret
   fun:_ZN4dyldL12notifySingleE17dyld_image_statesPK11ImageLoaderPNS1_21InitializerTimingListE
   fun:_ZN11ImageLoader23recursiveInitializationERKNS_11LinkContextEjPKcRNS_21InitializerTimingListERNS_15UninitedUpwardsE
   fun:_ZN11ImageLoader23recursiveInitializationERKNS_11LinkContextEjPKcRNS_21InitializerTimingListERNS_15UninitedUpwardsE
   fun:_ZN11ImageLoader23recursiveInitializationERKNS_11LinkContextEjPKcRNS_21InitializerTimingListERNS_15UninitedUpwardsE
}
{
   <mlx_suppression_rule_134>
   Memcheck:Leak
   match-leak-kinds: definite
   fun:calloc
   fun:_ZN4objc8DenseMapIP10objc_classS2_NS_17DenseMapValueInfoIS2_EENS_12DenseMapInfoIS2_EENS_6detail12DenseMapPairIS2_S2_EEE4growEj
   fun:_ZL16addRemappedClassP10objc_classS0_
   fun:objc_initializeClassPair
   fun:_NSToDoAtProcessStart
   fun:_NSInitializePlatform
   fun:objc_msgLookup_fpret
   fun:_ZN4dyldL12notifySingleE17dyld_image_statesPK11ImageLoaderPNS1_21InitializerTimingListE
   fun:_ZN11ImageLoader23recursiveInitializationERKNS_11LinkContextEjPKcRNS_21InitializerTimingListERNS_15UninitedUpwardsE
   fun:_ZN11ImageLoader23recursiveInitializationERKNS_11LinkContextEjPKcRNS_21InitializerTimingListERNS_15UninitedUpwardsE
   fun:_ZN11ImageLoader23recursiveInitializationERKNS_11LinkContextEjPKcRNS_21InitializerTimingListERNS_15UninitedUpwardsE
   fun:_ZN11ImageLoader23recursiveInitializationERKNS_11LinkContextEjPKcRNS_21InitializerTimingListERNS_15UninitedUpwardsE
}
{
   <mlx_suppression_rule_135>
   Memcheck:Leak
   match-leak-kinds: definite
   fun:calloc
   fun:_ZN4objc8DenseMapIP10objc_classS2_NS_17DenseMapValueInfoIS2_EENS_12DenseMapInfoIS2_EENS_6detail12DenseMapPairIS2_S2_EEE4growEj
   fun:_ZN10objc_class11mangledNameEv
   fun:_ZL16addRemappedClassP10objc_classS0_
   fun:objc_initializeClassPair
   fun:_NSToDoAtProcessStart
   fun:_NSInitializePlatform
   fun:objc_msgLookup_fpret
   fun:_ZN4dyldL12notifySingleE17dyld_image_statesPK11ImageLoaderPNS1_21InitializerTimingListE
   fun:_ZN11ImageLoader23recursiveInitializationERKNS_11LinkContextEjPKcRNS_21InitializerTimingListERNS_15UninitedUpwardsE
   fun:_ZN11ImageLoader23recursiveInitializationERKNS_11LinkContextEjPKcRNS_21InitializerTimingListERNS_15UninitedUpwardsE
   fun:_ZN11ImageLoader23recursiveInitializationERKNS_11LinkContextEjPKcRNS_21InitializerTimingListERNS_15UninitedUpwardsE
}
{
   <mlx_suppression_rule_136>
   Memcheck:Leak
   match-leak-kinds: definite
   fun:calloc
   fun:_ZN4objc8DenseMapIP10objc_classS2_NS_17DenseMapValueInfoIS2_EENS_12DenseMapInfoIS2_EENS_6detail12DenseMapPairIS2_S2_EEE4growEj
   fun:_ZL16addRemappedClassP10objc_classS0_
   fun:objc_initializeClassPair
   fun:_NSToDoAtProcessStart
   fun:_NSInitializePlatform
   fun:objc_msgLookup_fpret
   fun:_ZN4dyldL12notifySingleE17dyld_image_statesPK11ImageLoaderPNS1_21InitializerTimingListE
   fun:_ZN11ImageLoader23recursiveInitializationERKNS_11LinkContextEjPKcRNS_21InitializerTimingListERNS_15UninitedUpwardsE
   fun:_ZN11ImageLoader23recursiveInitializationERKNS_11LinkContextEjPKcRNS_21InitializerTimingListERNS_15UninitedUpwardsE
   fun:_ZN11ImageLoader23recursiveInitializationERKNS_11LinkContextEjPKcRNS_21InitializerTimingListERNS_15UninitedUpwardsE
   fun:_ZN11ImageLoader23recursiveInitializationERKNS_11LinkContextEjPKcRNS_21InitializerTimingListERNS_15UninitedUpwardsE
}
{
   <mlx_suppression_rule_137>
   Memcheck:Leak
   match-leak-kinds: definite
   fun:calloc
   fun:_ZN4objc8DenseMapIP10objc_classS2_NS_17DenseMapValueInfoIS2_EENS_12DenseMapInfoIS2_EENS_6detail12DenseMapPairIS2_S2_EEE4growEj
   fun:_ZN10objc_class11mangledNameEv
   fun:_ZL16addRemappedClassP10objc_classS0_
   fun:objc_initializeClassPair
   fun:_NSToDoAtProcessStart
   fun:_NSInitializePlatform
   fun:objc_msgLookup_fpret
   fun:_ZN4dyldL12notifySingleE17dyld_image_statesPK11ImageLoaderPNS1_21InitializerTimingListE
   fun:_ZN11ImageLoader23recursiveInitializationERKNS_11LinkContextEjPKcRNS_21InitializerTimingListERNS_15UninitedUpwardsE
   fun:_ZN11ImageLoader23recursiveInitializationERKNS_11LinkContextEjPKcRNS_21InitializerTimingListERNS_15UninitedUpwardsE
   fun:_ZN11ImageLoader23recursiveInitializationERKNS_11LinkContextEjPKcRNS_21InitializerTimingListERNS_15UninitedUpwardsE
}
{
   <mlx_suppression_rule_138>
   Memcheck:Leak
   match-leak-kinds: definite
   fun:calloc
   fun:_ZN4objc8DenseMapIP10objc_classS2_NS_17DenseMapValueInfoIS2_EENS_12DenseMapInfoIS2_EENS_6detail12DenseMapPairIS2_S2_EEE4growEj
   fun:_ZL16addRemappedClassP10objc_classS0_
   fun:objc_initializeClassPair
   fun:_NSToDoAtProcessStart
   fun:_NSInitializePlatform
   fun:objc_msgLookup_fpret
   fun:_ZN4dyldL12notifySingleE17dyld_image_statesPK11ImageLoaderPNS1_21InitializerTimingListE
   fun:_ZN11ImageLoader23recursiveInitializationERKNS_11LinkContextEjPKcRNS_21InitializerTimingListERNS_15UninitedUpwardsE
   fun:_ZN11ImageLoader23recursiveInitializationERKNS_11LinkContextEjPKcRNS_21InitializerTimingListERNS_15UninitedUpwardsE
   fun:_ZN11ImageLoader23recursiveInitializationERKNS_11LinkContextEjPKcRNS_21InitializerTimingListERNS_15UninitedUpwardsE
   fun:_ZN11ImageLoader23recursiveInitializationERKNS_11LinkContextEjPKcRNS_21InitializerTimingListERNS_15UninitedUpwardsE
}
{
   <mlx_suppression_rule_139>
   Memcheck:Leak
   match-leak-kinds: definite
   fun:calloc
   fun:_ZN4objc8DenseMapIP10objc_classS2_NS_17DenseMapValueInfoIS2_EENS_12DenseMapInfoIS2_EENS_6detail12DenseMapPairIS2_S2_EEE4growEj
   fun:_ZN10objc_class11mangledNameEv
   fun:_ZL16addRemappedClassP10objc_classS0_
   fun:objc_initializeClassPair
   fun:_NSToDoAtProcessStart
   fun:_NSInitializePlatform
   fun:objc_msgLookup_fpret
   fun:_ZN4dyldL12notifySingleE17dyld_image_statesPK11ImageLoaderPNS1_21InitializerTimingListE
   fun:_ZN11ImageLoader23recursiveInitializationERKNS_11LinkContextEjPKcRNS_21InitializerTimingListERNS_15UninitedUpwardsE
   fun:_ZN11ImageLoader23recursiveInitializationERKNS_11LinkContextEjPKcRNS_21InitializerTimingListERNS_15UninitedUpwardsE
   fun:_ZN11ImageLoader23recursiveInitializationERKNS_11LinkContextEjPKcRNS_21InitializerTimingListERNS_15UninitedUpwardsE
}
{
   <mlx_suppression_rule_140>
   Memcheck:Leak
   match-leak-kinds: definite
   fun:calloc
   fun:_ZN4objc8DenseMapIP10objc_classS2_NS_17DenseMapValueInfoIS2_EENS_12DenseMapInfoIS2_EENS_6detail12DenseMapPairIS2_S2_EEE4growEj
   fun:_ZN10objc_class11mangledNameEv
   fun:_ZL16addRemappedClassP10objc_classS0_
   fun:objc_initializeClassPair
   fun:_NSToDoAtProcessStart
   fun:_NSInitializePlatform
   fun:objc_msgLookup_fpret
   fun:_ZN4dyldL12notifySingleE17dyld_image_statesPK11ImageLoaderPNS1_21InitializerTimingListE
   fun:_ZN11ImageLoader23recursiveInitializationERKNS_11LinkContextEjPKcRNS_21InitializerTimingListERNS_15UninitedUpwardsE
   fun:_ZN11ImageLoader23recursiveInitializationERKNS_11LinkContextEjPKcRNS_21InitializerTimingListERNS_15UninitedUpwardsE
   fun:_ZN11ImageLoader23recursiveInitializationERKNS_11LinkContextEjPKcRNS_21InitializerTimingListERNS_15UninitedUpwardsE
}
{
   <mlx_suppression_rule_141>
   Memcheck:Leak
   match-leak-kinds: definite
   fun:calloc
   fun:_ZN4objc8DenseMapIP10objc_classS2_NS_17DenseMapValueInfoIS2_EENS_12DenseMapInfoIS2_EENS_6detail12DenseMapPairIS2_S2_EEE4growEj
   fun:_ZN10objc_class11mangledNameEv
   fun:_ZL16addRemappedClassP10objc_classS0_
   fun:objc_initializeClassPair
   fun:_NSToDoAtProcessStart
   fun:_NSInitializePlatform
   fun:objc_msgLookup_fpret
   fun:_ZN4dyldL12notifySingleE17dyld_image_statesPK11ImageLoaderPNS1_21InitializerTimingListE
   fun:_ZN11ImageLoader23recursiveInitializationERKNS_11LinkContextEjPKcRNS_21InitializerTimingListERNS_15UninitedUpwardsE
   fun:_ZN11ImageLoader23recursiveInitializationERKNS_11LinkContextEjPKcRNS_21InitializerTimingListERNS_15UninitedUpwardsE
   fun:_ZN11ImageLoader23recursiveInitializationERKNS_11LinkContextEjPKcRNS_21InitializerTimingListERNS_15UninitedUpwardsE
}
{
   <mlx_suppression_rule_142>
   Memcheck:Leak
   match-leak-kinds: definite
   fun:calloc
   fun:_ZN4objc8DenseMapIP10objc_classS2_NS_17DenseMapValueInfoIS2_EENS_12DenseMapInfoIS2_EENS_6detail12DenseMapPairIS2_S2_EEE4growEj
   fun:_ZN10objc_class11mangledNameEv
   fun:_ZN10objc_class11mangledNameEv
   fun:_ZL16addRemappedClassP10objc_classS0_
   fun:objc_initializeClassPair
   fun:_NSToDoAtProcessStart
   fun:_NSInitializePlatform
   fun:objc_msgLookup_fpret
   fun:_ZN4dyldL12notifySingleE17dyld_image_statesPK11ImageLoaderPNS1_21InitializerTimingListE
   fun:_ZN11ImageLoader23recursiveInitializationERKNS_11LinkContextEjPKcRNS_21InitializerTimingListERNS_15UninitedUpwardsE
   fun:_ZN11ImageLoader23recursiveInitializationERKNS_11LinkContextEjPKcRNS_21InitializerTimingListERNS_15UninitedUpwardsE
}
{
   <mlx_suppression_rule_143>
   Memcheck:Leak
   match-leak-kinds: definite
   fun:calloc
   fun:_ZN4objc8DenseMapIP10objc_classS2_NS_17DenseMapValueInfoIS2_EENS_12DenseMapInfoIS2_EENS_6detail12DenseMapPairIS2_S2_EEE4growEj
   fun:_ZN10objc_class11mangledNameEv
   fun:_ZL16addRemappedClassP10objc_classS0_
   fun:objc_initializeClassPair
   fun:_NSToDoAtProcessStart
   fun:_NSInitializePlatform
   fun:objc_msgLookup_fpret
   fun:_ZN4dyldL12notifySingleE17dyld_image_statesPK11ImageLoaderPNS1_21InitializerTimingListE
   fun:_ZN11ImageLoader23recursiveInitializationERKNS_11LinkContextEjPKcRNS_21InitializerTimingListERNS_15UninitedUpwardsE
   fun:_ZN11ImageLoader23recursiveInitializationERKNS_11LinkContextEjPKcRNS_21InitializerTimingListERNS_15UninitedUpwardsE
   fun:_ZN11ImageLoader23recursiveInitializationERKNS_11LinkContextEjPKcRNS_21InitializerTimingListERNS_15UninitedUpwardsE
}
{
   <mlx_suppression_rule_144>
   Memcheck:Leak
   match-leak-kinds: definite
   fun:calloc
   fun:_ZN4objc8DenseMapIP10objc_classS2_NS_17DenseMapValueInfoIS2_EENS_12DenseMapInfoIS2_EENS_6detail12DenseMapPairIS2_S2_EEE4growEj
   fun:_ZL16addRemappedClassP10objc_classS0_
   fun:_Z15allocateBucketsj
   fun:lookUpImpOrForward
   fun:_NSInitializePlatform
   fun:objc_msgLookup_fpret
   fun:_ZN4dyldL12notifySingleE17dyld_image_statesPK11ImageLoaderPNS1_21InitializerTimingListE
   fun:_ZN11ImageLoader23recursiveInitializationERKNS_11LinkContextEjPKcRNS_21InitializerTimingListERNS_15UninitedUpwardsE
   fun:_ZN11ImageLoader23recursiveInitializationERKNS_11LinkContextEjPKcRNS_21InitializerTimingListERNS_15UninitedUpwardsE
   fun:_ZN11ImageLoader23recursiveInitializationERKNS_11LinkContextEjPKcRNS_21InitializerTimingListERNS_15UninitedUpwardsE
   fun:_ZN11ImageLoader23recursiveInitializationERKNS_11LinkContextEjPKcRNS_21InitializerTimingListERNS_15UninitedUpwardsE
}
{
   <mlx_suppression_rule_145>
   Memcheck:Leak
   match-leak-kinds: definite
   fun:calloc
   fun:_ZN4objc8DenseMapIP10objc_classS2_NS_17DenseMapValueInfoIS2_EENS_12DenseMapInfoIS2_EENS_6detail12DenseMapPairIS2_S2_EEE4growEj
   fun:_ZL16addRemappedClassP10objc_classS0_
   fun:_ZL24realizeClassWithoutSwiftP10objc_classS0_
   fun:-[NSObject dealloc]
   fun:lookUpImpOrForward
   fun:_NSInitializePlatform
   fun:objc_msgLookup_fpret
   fun:_ZN4dyldL12notifySingleE17dyld_image_statesPK11ImageLoaderPNS1_21InitializerTimingListE
   fun:_ZN11ImageLoader23recursiveInitializationERKNS_11LinkContextEjPKcRNS_21InitializerTimingListERNS_15UninitedUpwardsE
   fun:_ZN11ImageLoader23recursiveInitializationERKNS_11LinkContextEjPKcRNS_21InitializerTimingListERNS_15UninitedUpwardsE
   fun:_ZN11ImageLoader23recursiveInitializationERKNS_11LinkContextEjPKcRNS_21InitializerTimingListERNS_15UninitedUpwardsE
}
{
   <mlx_suppression_rule_146>
   Memcheck:Leak
   match-leak-kinds: definite
   fun:calloc
   fun:_ZN4objc8DenseMapIP10objc_classS2_NS_17DenseMapValueInfoIS2_EENS_12DenseMapInfoIS2_EENS_6detail12DenseMapPairIS2_S2_EEE4growEj
   fun:_ZL16addRemappedClassP10objc_classS0_
   fun:_Z15allocateBucketsj
   fun:lookUpImpOrForward
   fun:-[NSThread init]
   fun:____NSThreads_block_invoke
   fun:_dispatch_client_callout
   fun:_dispatch_once_callout
   fun:_NSThreadGet0
   fun:_NSInitializePlatform
   fun:objc_msgLookup_fpret
}
{
   <mlx_suppression_rule_147>
   Memcheck:Leak
   match-leak-kinds: definite
   fun:calloc
   fun:_ZN4objc8DenseMapIP10objc_classS2_NS_17DenseMapValueInfoIS2_EENS_12DenseMapInfoIS2_EENS_6detail12DenseMapPairIS2_S2_EEE4growEj
   fun:_ZL16addRemappedClassP10objc_classS0_
   fun:_ZL24realizeClassWithoutSwiftP10objc_classS0_
   fun:-[NSObject dealloc]
   fun:lookUpImpOrForward
   fun:-[NSThread init]
   fun:____NSThreads_block_invoke
   fun:_dispatch_client_callout
   fun:_dispatch_once_callout
   fun:_NSThreadGet0
   fun:_NSInitializePlatform
}
{
   <mlx_suppression_rule_148>
   Memcheck:Leak
   match-leak-kinds: definite
   fun:calloc
   fun:_ZN4objc8DenseMapIP10objc_classS2_NS_17DenseMapValueInfoIS2_EENS_12DenseMapInfoIS2_EENS_6detail12DenseMapPairIS2_S2_EEE4growEj
   fun:_ZL16addRemappedClassP10objc_classS0_
   fun:_Z15allocateBucketsj
   fun:lookUpImpOrForward
   fun:CFBasicHashSetValue
   fun:-[NSThread init]
   fun:____NSThreads_block_invoke
   fun:_dispatch_client_callout
   fun:_dispatch_once_callout
   fun:_NSThreadGet0
   fun:_NSInitializePlatform
}
{
   <mlx_suppression_rule_149>
   Memcheck:Leak
   match-leak-kinds: definite
   fun:calloc
   fun:_ZN4objc8DenseMapIP10objc_classS2_NS_17DenseMapValueInfoIS2_EENS_12DenseMapInfoIS2_EENS_6detail12DenseMapPairIS2_S2_EEE4growEj
   fun:_ZL16addRemappedClassP10objc_classS0_
   fun:_ZL24realizeClassWithoutSwiftP10objc_classS0_
   fun:-[NSObject dealloc]
   fun:lookUpImpOrForward
   fun:CFBasicHashSetValue
   fun:-[NSThread init]
   fun:____NSThreads_block_invoke
   fun:_dispatch_client_callout
   fun:_dispatch_once_callout
   fun:_NSThreadGet0
}
{
   <mlx_suppression_rule_150>
   Memcheck:Leak
   match-leak-kinds: definite
   fun:calloc
   fun:_ZN4objc8DenseMapIP10objc_classS2_NS_17DenseMapValueInfoIS2_EENS_12DenseMapInfoIS2_EENS_6detail12DenseMapPairIS2_S2_EEE4growEj
   fun:_ZL16addRemappedClassP10objc_classS0_
   fun:objc_initializeClassPair
   fun:___NSSetupDispatchDataBridge_block_invoke
   fun:_dispatch_client_callout
   fun:_dispatch_once_callout
   fun:_NSSetupDispatchDataBridge
   fun:objc_msgLookup_fpret
   fun:_ZN4dyldL12notifySingleE17dyld_image_statesPK11ImageLoaderPNS1_21InitializerTimingListE
   fun:_ZN11ImageLoader23recursiveInitializationERKNS_11LinkContextEjPKcRNS_21InitializerTimingListERNS_15UninitedUpwardsE
   fun:_ZN11ImageLoader23recursiveInitializationERKNS_11LinkContextEjPKcRNS_21InitializerTimingListERNS_15UninitedUpwardsE
}
{
   <mlx_suppression_rule_151>
   Memcheck:Leak
   match-leak-kinds: definite
   fun:calloc
   fun:_ZN4objc8DenseMapIP10objc_classS2_NS_17DenseMapValueInfoIS2_EENS_12DenseMapInfoIS2_EENS_6detail12DenseMapPairIS2_S2_EEE4growEj
   fun:_ZN10objc_class11mangledNameEv
   fun:_ZL16addRemappedClassP10objc_classS0_
   fun:objc_initializeClassPair
   fun:___NSSetupDispatchDataBridge_block_invoke
   fun:_dispatch_client_callout
   fun:_dispatch_once_callout
   fun:_NSSetupDispatchDataBridge
   fun:objc_msgLookup_fpret
   fun:_ZN4dyldL12notifySingleE17dyld_image_statesPK11ImageLoaderPNS1_21InitializerTimingListE
   fun:_ZN11ImageLoader23recursiveInitializationERKNS_11LinkContextEjPKcRNS_21InitializerTimingListERNS_15UninitedUpwardsE
}
{
   <mlx_suppression_rule_152>
   Memcheck:Leak
   match-leak-kinds: definite
   fun:calloc
   fun:_ZN4objc8DenseMapIP10objc_classS2_NS_17DenseMapValueInfoIS2_EENS_12DenseMapInfoIS2_EENS_6detail12DenseMapPairIS2_S2_EEE4growEj
   fun:_ZL16addRemappedClassP10objc_classS0_
   fun:_Z15allocateBucketsj
   fun:lookUpImpOrForward
   fun:+[NSBinder load]
   fun:objc_msgLookup_fp2ret
   fun:_ZN4dyldL12notifySingleE17dyld_image_statesPK11ImageLoaderPNS1_21InitializerTimingListE
   fun:_ZN11ImageLoader23recursiveInitializationERKNS_11LinkContextEjPKcRNS_21InitializerTimingListERNS_15UninitedUpwardsE
   fun:_ZN11ImageLoader23recursiveInitializationERKNS_11LinkContextEjPKcRNS_21InitializerTimingListERNS_15UninitedUpwardsE
   fun:_ZN11ImageLoader19processInitializersERKNS_11LinkContextEjRNS_21InitializerTimingListERNS_15UninitedUpwardsE
   fun:_ZN11ImageLoader15runInitializersERKNS_11LinkContextERNS_21InitializerTimingListE
}
{
   <mlx_suppression_rule_153>
   Memcheck:Leak
   match-leak-kinds: definite
   fun:calloc
   fun:_ZN4objc8DenseMapIP10objc_classS2_NS_17DenseMapValueInfoIS2_EENS_12DenseMapInfoIS2_EENS_6detail12DenseMapPairIS2_S2_EEE4growEj
   fun:_ZN10objc_class11mangledNameEv
   fun:_ZL16addRemappedClassP10objc_classS0_
   fun:_Z15allocateBucketsj
   fun:lookUpImpOrForward
   fun:+[NSBinder load]
   fun:objc_msgLookup_fp2ret
   fun:_ZN4dyldL12notifySingleE17dyld_image_statesPK11ImageLoaderPNS1_21InitializerTimingListE
   fun:_ZN11ImageLoader23recursiveInitializationERKNS_11LinkContextEjPKcRNS_21InitializerTimingListERNS_15UninitedUpwardsE
   fun:_ZN11ImageLoader23recursiveInitializationERKNS_11LinkContextEjPKcRNS_21InitializerTimingListERNS_15UninitedUpwardsE
   fun:_ZN11ImageLoader19processInitializersERKNS_11LinkContextEjRNS_21InitializerTimingListERNS_15UninitedUpwardsE
}
{
   <mlx_suppression_rule_154>
   Memcheck:Leak
   match-leak-kinds: definite
   fun:calloc
   fun:_ZN4objc8DenseMapIP10objc_classS2_NS_17DenseMapValueInfoIS2_EENS_12DenseMapInfoIS2_EENS_6detail12DenseMapPairIS2_S2_EEE4growEj
   fun:_ZL16addRemappedClassP10objc_classS0_
   fun:_ZL24realizeClassWithoutSwiftP10objc_classS0_
   fun:-[NSObject dealloc]
   fun:lookUpImpOrForward
   fun:+[NSBinder load]
   fun:objc_msgLookup_fp2ret
   fun:_ZN4dyldL12notifySingleE17dyld_image_statesPK11ImageLoaderPNS1_21InitializerTimingListE
   fun:_ZN11ImageLoader23recursiveInitializationERKNS_11LinkContextEjPKcRNS_21InitializerTimingListERNS_15UninitedUpwardsE
   fun:_ZN11ImageLoader23recursiveInitializationERKNS_11LinkContextEjPKcRNS_21InitializerTimingListERNS_15UninitedUpwardsE
   fun:_ZN11ImageLoader19processInitializersERKNS_11LinkContextEjRNS_21InitializerTimingListERNS_15UninitedUpwardsE
}
{
   <mlx_suppression_rule_155>
   Memcheck:Leak
   match-leak-kinds: definite
   fun:calloc
   fun:_ZN4objc8DenseMapIP10objc_classS2_NS_17DenseMapValueInfoIS2_EENS_12DenseMapInfoIS2_EENS_6detail12DenseMapPairIS2_S2_EEE4growEj
   fun:_ZN10objc_class11mangledNameEv
   fun:_ZL16addRemappedClassP10objc_classS0_
   fun:_ZL24realizeClassWithoutSwiftP10objc_classS0_
   fun:-[NSObject dealloc]
   fun:lookUpImpOrForward
   fun:+[NSBinder load]
   fun:objc_msgLookup_fp2ret
   fun:_ZN4dyldL12notifySingleE17dyld_image_statesPK11ImageLoaderPNS1_21InitializerTimingListE
   fun:_ZN11ImageLoader23recursiveInitializationERKNS_11LinkContextEjPKcRNS_21InitializerTimingListERNS_15UninitedUpwardsE
   fun:_ZN11ImageLoader23recursiveInitializationERKNS_11LinkContextEjPKcRNS_21InitializerTimingListERNS_15UninitedUpwardsE
}
{
   <mlx_suppression_rule_156>
   Memcheck:Leak
   match-leak-kinds: definite
   fun:calloc
   fun:_ZN4objc8DenseMapIP10objc_classS2_NS_17DenseMapValueInfoIS2_EENS_12DenseMapInfoIS2_EENS_6detail12DenseMapPairIS2_S2_EEE4growEj
   fun:_ZL16addRemappedClassP10objc_classS0_
   fun:objc_initializeClassPair
   fun:+[NSString initialize]
   fun:_objc_addWillInitializeClassFunc
   fun:_ZN13list_array_ttI8method_t13method_list_t24method_list_t_authed_ptrE11attachListsEPKPS1_j
   fun:_ZL24realizeClassWithoutSwiftP10objc_classS0_
   fun:-[NSObject dealloc]
   fun:lookUpImpOrForward
   fun:+[NSString initialize]
   fun:_objc_addWillInitializeClassFunc
}
{
   <mlx_suppression_rule_157>
   Memcheck:Leak
   match-leak-kinds: definite
   fun:calloc
   fun:_ZN4objc8DenseMapIP10objc_classS2_NS_17DenseMapValueInfoIS2_EENS_12DenseMapInfoIS2_EENS_6detail12DenseMapPairIS2_S2_EEE4growEj
   fun:_ZN10objc_class11mangledNameEv
   fun:_ZL16addRemappedClassP10objc_classS0_
   fun:objc_initializeClassPair
   fun:+[NSString initialize]
   fun:_objc_addWillInitializeClassFunc
   fun:_ZN13list_array_ttI8method_t13method_list_t24method_list_t_authed_ptrE11attachListsEPKPS1_j
   fun:_ZL24realizeClassWithoutSwiftP10objc_classS0_
   fun:-[NSObject dealloc]
   fun:lookUpImpOrForward
   fun:+[NSString initialize]
}
{
   <mlx_suppression_rule_158>
   Memcheck:Leak
   match-leak-kinds: reachable
   fun:malloc
   fun:__setenv_locked
   fun:setenv
   fun:_CFExecutableLinkedOnOrAfterProgramSDK
   fun:__CFInitialize
   fun:_ZN16ImageLoaderMachO11doImageInitERKN11ImageLoader11LinkContextE
   fun:_ZN16ImageLoaderMachO16doInitializationERKN11ImageLoader11LinkContextE
   fun:_ZN11ImageLoader23recursiveInitializationERKNS_11LinkContextEjPKcRNS_21InitializerTimingListERNS_15UninitedUpwardsE
   fun:_ZN11ImageLoader23recursiveInitializationERKNS_11LinkContextEjPKcRNS_21InitializerTimingListERNS_15UninitedUpwardsE
   fun:_ZN11ImageLoader23recursiveInitializationERKNS_11LinkContextEjPKcRNS_21InitializerTimingListERNS_15UninitedUpwardsE
   fun:_ZN11ImageLoader23recursiveInitializationERKNS_11LinkContextEjPKcRNS_21InitializerTimingListERNS_15UninitedUpwardsE
   fun:_ZN11ImageLoader23recursiveInitializationERKNS_11LinkContextEjPKcRNS_21InitializerTimingListERNS_15UninitedUpwardsE
}
{
   <mlx_suppression_rule_159>
   Memcheck:Leak
   match-leak-kinds: possible
   fun:malloc
   fun:_ZL24realizeClassWithoutSwiftP10objc_classS0_
   fun:_ZL32adjustCustomFlagsForMethodChangeP10objc_classP8method_t
   fun:property_copyAttributeValue
   fun:_ZL10free_classP10objc_class
   fun:objc_msgLookup
   fun:_ZN4dyldL12notifySingleE17dyld_image_statesPK11ImageLoaderPNS1_21InitializerTimingListE
   fun:_ZN11ImageLoader23recursiveInitializationERKNS_11LinkContextEjPKcRNS_21InitializerTimingListERNS_15UninitedUpwardsE
   fun:_ZN11ImageLoader19processInitializersERKNS_11LinkContextEjRNS_21InitializerTimingListERNS_15UninitedUpwardsE
   fun:_ZN11ImageLoader19processInitializersERKNS_11LinkContextEjRNS_21InitializerTimingListERNS_15UninitedUpwardsE
   fun:_ZN11ImageLoader15runInitializersERKNS_11LinkContextERNS_21InitializerTimingListE
   fun:_ZN4dyld24initializeMainExecutableEv
}
{
   <mlx_suppression_rule_160>
   Memcheck:Leak
   match-leak-kinds: indirect
   fun:malloc
   fun:_ZL24realizeClassWithoutSwiftP10objc_classS0_
   fun:_ZL32adjustCustomFlagsForMethodChangeP10objc_classP8method_t
   fun:_ZL32adjustCustomFlagsForMethodChangeP10objc_classP8method_t
   fun:_ZL16attachCategoriesP10objc_classPK21locstamped_category_tji
   fun:_ZL16addRemappedClassP10objc_classS0_
   fun:objc_initializeClassPair
   fun:objc_registerClassPair
   fun:__CFStringCreateImmutableFunnel3
   fun:__CFInitialize
   fun:_ZN16ImageLoaderMachO11doImageInitERKN11ImageLoader11LinkContextE
   fun:_ZN16ImageLoaderMachO16doInitializationERKN11ImageLoader11LinkContextE
}
{
   <mlx_suppression_rule_161>
   Memcheck:Leak
   match-leak-kinds: indirect
   fun:malloc
   fun:_ZL24realizeClassWithoutSwiftP10objc_classS0_
   fun:_ZL32adjustCustomFlagsForMethodChangeP10objc_classP8method_t
   fun:_ZL32adjustCustomFlagsForMethodChangeP10objc_classP8method_t
   fun:_ZL16attachCategoriesP10objc_classPK21locstamped_category_tji
   fun:_ZL16addRemappedClassP10objc_classS0_
   fun:objc_initializeClassPair
   fun:objc_registerClassPair
   fun:__CFStringCreateImmutableFunnel3
   fun:__CFInitialize
   fun:_ZN16ImageLoaderMachO11doImageInitERKN11ImageLoader11LinkContextE
   fun:_ZN16ImageLoaderMachO16doInitializationERKN11ImageLoader11LinkContextE
}
{
   <mlx_suppression_rule_162>
   Memcheck:Leak
   match-leak-kinds: indirect
   fun:malloc
   fun:_ZL24realizeClassWithoutSwiftP10objc_classS0_
   fun:_ZL32adjustCustomFlagsForMethodChangeP10objc_classP8method_t
   fun:_ZL32adjustCustomFlagsForMethodChangeP10objc_classP8method_t
   fun:_ZL16attachCategoriesP10objc_classPK21locstamped_category_tji
   fun:_ZN10objc_class11mangledNameEv
   fun:_ZL16addRemappedClassP10objc_classS0_
   fun:objc_initializeClassPair
   fun:_NSToDoAtProcessStart
   fun:_NSInitializePlatform
   fun:objc_msgLookup_fpret
   fun:_ZN4dyldL12notifySingleE17dyld_image_statesPK11ImageLoaderPNS1_21InitializerTimingListE
}
{
   <mlx_suppression_rule_163>
   Memcheck:Leak
   match-leak-kinds: indirect
   fun:malloc
   fun:_ZL24realizeClassWithoutSwiftP10objc_classS0_
   fun:_ZL32adjustCustomFlagsForMethodChangeP10objc_classP8method_t
   fun:_ZL32adjustCustomFlagsForMethodChangeP10objc_classP8method_t
   fun:_ZL16attachCategoriesP10objc_classPK21locstamped_category_tji
   fun:_ZL16addRemappedClassP10objc_classS0_
   fun:objc_initializeClassPair
   fun:_NSToDoAtProcessStart
   fun:_NSInitializePlatform
   fun:objc_msgLookup_fpret
   fun:_ZN4dyldL12notifySingleE17dyld_image_statesPK11ImageLoaderPNS1_21InitializerTimingListE
   fun:_ZN11ImageLoader23recursiveInitializationERKNS_11LinkContextEjPKcRNS_21InitializerTimingListERNS_15UninitedUpwardsE
}
{
   <mlx_suppression_rule_164>
   Memcheck:Leak
   match-leak-kinds: definite
   fun:malloc
   fun:strdup
   fun:__CFGetConverter
   fun:__exceptionInit
   fun:_ZN16ImageLoaderMachO11doImageInitERKN11ImageLoader11LinkContextE
   fun:_ZN16ImageLoaderMachO16doInitializationERKN11ImageLoader11LinkContextE
   fun:_ZN11ImageLoader23recursiveInitializationERKNS_11LinkContextEjPKcRNS_21InitializerTimingListERNS_15UninitedUpwardsE
   fun:_ZN11ImageLoader23recursiveInitializationERKNS_11LinkContextEjPKcRNS_21InitializerTimingListERNS_15UninitedUpwardsE
   fun:_ZN11ImageLoader23recursiveInitializationERKNS_11LinkContextEjPKcRNS_21InitializerTimingListERNS_15UninitedUpwardsE
   fun:_ZN11ImageLoader23recursiveInitializationERKNS_11LinkContextEjPKcRNS_21InitializerTimingListERNS_15UninitedUpwardsE
   fun:_ZN11ImageLoader23recursiveInitializationERKNS_11LinkContextEjPKcRNS_21InitializerTimingListERNS_15UninitedUpwardsE
   fun:_ZN11ImageLoader23recursiveInitializationERKNS_11LinkContextEjPKcRNS_21InitializerTimingListERNS_15UninitedUpwardsE
}
{
   <mlx_suppression_rule_165>
   Memcheck:Leak
   match-leak-kinds: possible
   fun:calloc
   fun:_ZL33realizeClassMaybeSwiftMaybeRelockP10objc_classR8mutex_ttILb0EEb
   fun:_ZL32adjustCustomFlagsForMethodChangeP10objc_classP8method_t
   fun:property_copyAttributeValue
   fun:_ZL10free_classP10objc_class
   fun:objc_msgLookup
   fun:_ZN4dyldL12notifySingleE17dyld_image_statesPK11ImageLoaderPNS1_21InitializerTimingListE
   fun:_ZN11ImageLoader23recursiveInitializationERKNS_11LinkContextEjPKcRNS_21InitializerTimingListERNS_15UninitedUpwardsE
   fun:_ZN11ImageLoader19processInitializersERKNS_11LinkContextEjRNS_21InitializerTimingListERNS_15UninitedUpwardsE
   fun:_ZN11ImageLoader19processInitializersERKNS_11LinkContextEjRNS_21InitializerTimingListERNS_15UninitedUpwardsE
   fun:_ZN11ImageLoader15runInitializersERKNS_11LinkContextERNS_21InitializerTimingListE
   fun:_ZN4dyld24initializeMainExecutableEv
}
{
   <mlx_suppression_rule_166>
   Memcheck:Leak
   match-leak-kinds: possible
   fun:calloc
   fun:_ZL33realizeClassMaybeSwiftMaybeRelockP10objc_classR8mutex_ttILb0EEb
   fun:_ZL32adjustCustomFlagsForMethodChangeP10objc_classP8method_t
   fun:property_copyAttributeValue
   fun:_ZL10free_classP10objc_class
   fun:objc_msgLookup
   fun:_ZN4dyldL12notifySingleE17dyld_image_statesPK11ImageLoaderPNS1_21InitializerTimingListE
   fun:_ZN11ImageLoader23recursiveInitializationERKNS_11LinkContextEjPKcRNS_21InitializerTimingListERNS_15UninitedUpwardsE
   fun:_ZN11ImageLoader19processInitializersERKNS_11LinkContextEjRNS_21InitializerTimingListERNS_15UninitedUpwardsE
   fun:_ZN11ImageLoader19processInitializersERKNS_11LinkContextEjRNS_21InitializerTimingListERNS_15UninitedUpwardsE
   fun:_ZN11ImageLoader15runInitializersERKNS_11LinkContextERNS_21InitializerTimingListE
   fun:_ZN4dyld24initializeMainExecutableEv
}
{
   <mlx_suppression_rule_167>
   Memcheck:Leak
   match-leak-kinds: possible
   fun:calloc
   fun:_ZL33realizeClassMaybeSwiftMaybeRelockP10objc_classR8mutex_ttILb0EEb
   fun:_ZL32adjustCustomFlagsForMethodChangeP10objc_classP8method_t
   fun:_ZL32adjustCustomFlagsForMethodChangeP10objc_classP8method_t
   fun:_ZL16attachCategoriesP10objc_classPK21locstamped_category_tji
   fun:_ZN10objc_class11mangledNameEv
   fun:objc_msgSendSuper2
   fun:_ZN4dyldL12notifySingleE17dyld_image_statesPK11ImageLoaderPNS1_21InitializerTimingListE
   fun:_ZN11ImageLoader23recursiveInitializationERKNS_11LinkContextEjPKcRNS_21InitializerTimingListERNS_15UninitedUpwardsE
   fun:_ZN11ImageLoader23recursiveInitializationERKNS_11LinkContextEjPKcRNS_21InitializerTimingListERNS_15UninitedUpwardsE
   fun:_ZN11ImageLoader23recursiveInitializationERKNS_11LinkContextEjPKcRNS_21InitializerTimingListERNS_15UninitedUpwardsE
   fun:_ZN11ImageLoader23recursiveInitializationERKNS_11LinkContextEjPKcRNS_21InitializerTimingListERNS_15UninitedUpwardsE
}
{
   <mlx_suppression_rule_168>
   Memcheck:Leak
   match-leak-kinds: possible
   fun:calloc
   fun:_ZL33realizeClassMaybeSwiftMaybeRelockP10objc_classR8mutex_ttILb0EEb
   fun:_ZL32adjustCustomFlagsForMethodChangeP10objc_classP8method_t
   fun:_ZL32adjustCustomFlagsForMethodChangeP10objc_classP8method_t
   fun:_ZL16attachCategoriesP10objc_classPK21locstamped_category_tji
   fun:objc_msgSendSuper2
   fun:_ZN4dyldL12notifySingleE17dyld_image_statesPK11ImageLoaderPNS1_21InitializerTimingListE
   fun:_ZN11ImageLoader23recursiveInitializationERKNS_11LinkContextEjPKcRNS_21InitializerTimingListERNS_15UninitedUpwardsE
   fun:_ZN11ImageLoader23recursiveInitializationERKNS_11LinkContextEjPKcRNS_21InitializerTimingListERNS_15UninitedUpwardsE
   fun:_ZN11ImageLoader23recursiveInitializationERKNS_11LinkContextEjPKcRNS_21InitializerTimingListERNS_15UninitedUpwardsE
   fun:_ZN11ImageLoader23recursiveInitializationERKNS_11LinkContextEjPKcRNS_21InitializerTimingListERNS_15UninitedUpwardsE
   fun:_ZN11ImageLoader23recursiveInitializationERKNS_11LinkContextEjPKcRNS_21InitializerTimingListERNS_15UninitedUpwardsE
}
{
   <mlx_suppression_rule_169>
   Memcheck:Leak
   match-leak-kinds: indirect
   fun:calloc
   fun:_ZL33realizeClassMaybeSwiftMaybeRelockP10objc_classR8mutex_ttILb0EEb
   fun:_ZL32adjustCustomFlagsForMethodChangeP10objc_classP8method_t
   fun:_ZL32adjustCustomFlagsForMethodChangeP10objc_classP8method_t
   fun:_ZL16attachCategoriesP10objc_classPK21locstamped_category_tji
   fun:_ZN10objc_class11mangledNameEv
   fun:_ZL16addRemappedClassP10objc_classS0_
   fun:objc_initializeClassPair
   fun:objc_registerClassPair
   fun:__CFStringCreateImmutableFunnel3
   fun:__CFInitialize
   fun:_ZN16ImageLoaderMachO11doImageInitERKN11ImageLoader11LinkContextE
}
{
   <mlx_suppression_rule_170>
   Memcheck:Leak
   match-leak-kinds: indirect
   fun:calloc
   fun:_ZL33realizeClassMaybeSwiftMaybeRelockP10objc_classR8mutex_ttILb0EEb
   fun:_ZL32adjustCustomFlagsForMethodChangeP10objc_classP8method_t
   fun:_ZL32adjustCustomFlagsForMethodChangeP10objc_classP8method_t
   fun:_ZL16attachCategoriesP10objc_classPK21locstamped_category_tji
   fun:_ZL16addRemappedClassP10objc_classS0_
   fun:objc_initializeClassPair
   fun:objc_registerClassPair
   fun:__CFStringCreateImmutableFunnel3
   fun:__CFInitialize
   fun:_ZN16ImageLoaderMachO11doImageInitERKN11ImageLoader11LinkContextE
   fun:_ZN16ImageLoaderMachO16doInitializationERKN11ImageLoader11LinkContextE
}
{
   <mlx_suppression_rule_171>
   Memcheck:Leak
   match-leak-kinds: indirect
   fun:calloc
   fun:_ZL33realizeClassMaybeSwiftMaybeRelockP10objc_classR8mutex_ttILb0EEb
   fun:_ZL32adjustCustomFlagsForMethodChangeP10objc_classP8method_t
   fun:_ZL32adjustCustomFlagsForMethodChangeP10objc_classP8method_t
   fun:_ZL16attachCategoriesP10objc_classPK21locstamped_category_tji
   fun:_ZN10objc_class11mangledNameEv
   fun:_ZN10objc_class11mangledNameEv
   fun:_ZL16addRemappedClassP10objc_classS0_
   fun:objc_initializeClassPair
   fun:objc_registerClassPair
   fun:__CFStringCreateImmutableFunnel3
   fun:__CFInitialize
}
{
   <mlx_suppression_rule_172>
   Memcheck:Leak
   match-leak-kinds: indirect
   fun:calloc
   fun:_ZL33realizeClassMaybeSwiftMaybeRelockP10objc_classR8mutex_ttILb0EEb
   fun:_ZL32adjustCustomFlagsForMethodChangeP10objc_classP8method_t
   fun:_ZL32adjustCustomFlagsForMethodChangeP10objc_classP8method_t
   fun:_ZL16attachCategoriesP10objc_classPK21locstamped_category_tji
   fun:_ZN10objc_class11mangledNameEv
   fun:_ZN10objc_class11mangledNameEv
   fun:_ZL16addRemappedClassP10objc_classS0_
   fun:objc_initializeClassPair
   fun:objc_registerClassPair
   fun:__CFStringCreateImmutableFunnel3
   fun:__CFInitialize
}
{
   <mlx_suppression_rule_173>
   Memcheck:Leak
   match-leak-kinds: indirect
   fun:calloc
   fun:_ZL33realizeClassMaybeSwiftMaybeRelockP10objc_classR8mutex_ttILb0EEb
   fun:_ZL32adjustCustomFlagsForMethodChangeP10objc_classP8method_t
   fun:_ZL32adjustCustomFlagsForMethodChangeP10objc_classP8method_t
   fun:_ZL16attachCategoriesP10objc_classPK21locstamped_category_tji
   fun:_ZN10objc_class11mangledNameEv
   fun:_ZL16addRemappedClassP10objc_classS0_
   fun:objc_initializeClassPair
   fun:objc_registerClassPair
   fun:__CFStringCreateImmutableFunnel3
   fun:__CFInitialize
   fun:_ZN16ImageLoaderMachO11doImageInitERKN11ImageLoader11LinkContextE
}
{
   <mlx_suppression_rule_174>
   Memcheck:Leak
   match-leak-kinds: indirect
   fun:calloc
   fun:_ZL33realizeClassMaybeSwiftMaybeRelockP10objc_classR8mutex_ttILb0EEb
   fun:_ZL32adjustCustomFlagsForMethodChangeP10objc_classP8method_t
   fun:_ZL32adjustCustomFlagsForMethodChangeP10objc_classP8method_t
   fun:_ZL16attachCategoriesP10objc_classPK21locstamped_category_tji
   fun:_ZN10objc_class11mangledNameEv
   fun:_ZL16addRemappedClassP10objc_classS0_
   fun:objc_initializeClassPair
   fun:objc_registerClassPair
   fun:__CFStringCreateImmutableFunnel3
   fun:__CFInitialize
   fun:_ZN16ImageLoaderMachO11doImageInitERKN11ImageLoader11LinkContextE
}
{
   <mlx_suppression_rule_175>
   Memcheck:Leak
   match-leak-kinds: indirect
   fun:calloc
   fun:_ZL33realizeClassMaybeSwiftMaybeRelockP10objc_classR8mutex_ttILb0EEb
   fun:_ZL32adjustCustomFlagsForMethodChangeP10objc_classP8method_t
   fun:_ZL32adjustCustomFlagsForMethodChangeP10objc_classP8method_t
   fun:_ZL16attachCategoriesP10objc_classPK21locstamped_category_tji
   fun:_ZL16addRemappedClassP10objc_classS0_
   fun:objc_initializeClassPair
   fun:objc_registerClassPair
   fun:__CFStringCreateImmutableFunnel3
   fun:__CFInitialize
   fun:_ZN16ImageLoaderMachO11doImageInitERKN11ImageLoader11LinkContextE
   fun:_ZN16ImageLoaderMachO16doInitializationERKN11ImageLoader11LinkContextE
}
{
   <mlx_suppression_rule_176>
   Memcheck:Leak
   match-leak-kinds: indirect
   fun:calloc
   fun:_ZL33realizeClassMaybeSwiftMaybeRelockP10objc_classR8mutex_ttILb0EEb
   fun:_ZL32adjustCustomFlagsForMethodChangeP10objc_classP8method_t
   fun:_ZL32adjustCustomFlagsForMethodChangeP10objc_classP8method_t
   fun:_ZL16attachCategoriesP10objc_classPK21locstamped_category_tji
   fun:_ZN10objc_class11mangledNameEv
   fun:_ZN10objc_class11mangledNameEv
   fun:_ZL16addRemappedClassP10objc_classS0_
   fun:objc_initializeClassPair
   fun:objc_registerClassPair
   fun:__CFStringCreateImmutableFunnel3
   fun:__CFInitialize
}
{
   <mlx_suppression_rule_177>
   Memcheck:Leak
   match-leak-kinds: indirect
   fun:calloc
   fun:_ZL33realizeClassMaybeSwiftMaybeRelockP10objc_classR8mutex_ttILb0EEb
   fun:_ZL32adjustCustomFlagsForMethodChangeP10objc_classP8method_t
   fun:_ZL32adjustCustomFlagsForMethodChangeP10objc_classP8method_t
   fun:_ZL16attachCategoriesP10objc_classPK21locstamped_category_tji
   fun:_ZN10objc_class11mangledNameEv
   fun:_ZL16addRemappedClassP10objc_classS0_
   fun:objc_initializeClassPair
   fun:objc_registerClassPair
   fun:__CFStringCreateImmutableFunnel3
   fun:__CFInitialize
   fun:_ZN16ImageLoaderMachO11doImageInitERKN11ImageLoader11LinkContextE
}
{
   <mlx_suppression_rule_178>
   Memcheck:Leak
   match-leak-kinds: indirect
   fun:calloc
   fun:_ZL33realizeClassMaybeSwiftMaybeRelockP10objc_classR8mutex_ttILb0EEb
   fun:_ZL32adjustCustomFlagsForMethodChangeP10objc_classP8method_t
   fun:_ZL32adjustCustomFlagsForMethodChangeP10objc_classP8method_t
   fun:_ZL16attachCategoriesP10objc_classPK21locstamped_category_tji
   fun:_ZN10objc_class11mangledNameEv
   fun:_ZN10objc_class11mangledNameEv
   fun:_ZL16addRemappedClassP10objc_classS0_
   fun:objc_initializeClassPair
   fun:objc_registerClassPair
   fun:__CFStringCreateImmutableFunnel3
   fun:__CFInitializeLinkCheck
}
{
   <mlx_suppression_rule_179>
   Memcheck:Leak
   match-leak-kinds: indirect
   fun:calloc
   fun:_ZL33realizeClassMaybeSwiftMaybeRelockP10objc_classR8mutex_ttILb0EEb
   fun:_ZL32adjustCustomFlagsForMethodChangeP10objc_classP8method_t
   fun:_ZL32adjustCustomFlagsForMethodChangeP10objc_classP8method_t
   fun:_ZL16attachCategoriesP10objc_classPK21locstamped_category_tji
   fun:_ZN10objc_class11mangledNameEv
   fun:_ZL16addRemappedClassP10objc_classS0_
   fun:objc_initializeClassPair
   fun:objc_registerClassPair
   fun:__CFStringCreateImmutableFunnel3
   fun:__CFInitializeLinkCheck
   fun:_ZN16ImageLoaderMachO11doImageInitERKN11ImageLoader11LinkContextE
}
{
   <mlx_suppression_rule_180>
   Memcheck:Leak
   match-leak-kinds: indirect
   fun:calloc
   fun:_ZL33realizeClassMaybeSwiftMaybeRelockP10objc_classR8mutex_ttILb0EEb
   fun:_ZL32adjustCustomFlagsForMethodChangeP10objc_classP8method_t
   fun:_ZL32adjustCustomFlagsForMethodChangeP10objc_classP8method_t
   fun:_ZL16attachCategoriesP10objc_classPK21locstamped_category_tji
   fun:_ZN10objc_class11mangledNameEv
   fun:_ZL16addRemappedClassP10objc_classS0_
   fun:objc_initializeClassPair
   fun:objc_registerClassPair
   fun:__CFStringCreateImmutableFunnel3
   fun:__CFInitializeLinkCheck
   fun:_ZN16ImageLoaderMachO11doImageInitERKN11ImageLoader11LinkContextE
}
{
   <mlx_suppression_rule_181>
   Memcheck:Leak
   match-leak-kinds: indirect
   fun:calloc
   fun:_ZL33realizeClassMaybeSwiftMaybeRelockP10objc_classR8mutex_ttILb0EEb
   fun:_ZL32adjustCustomFlagsForMethodChangeP10objc_classP8method_t
   fun:_ZL32adjustCustomFlagsForMethodChangeP10objc_classP8method_t
   fun:_ZL16attachCategoriesP10objc_classPK21locstamped_category_tji
   fun:_ZN10objc_class11mangledNameEv
   fun:_ZN10objc_class11mangledNameEv
   fun:_ZL16addRemappedClassP10objc_classS0_
   fun:objc_initializeClassPair
   fun:objc_registerClassPair
   fun:__CFStringCreateImmutableFunnel3
   fun:__CFInitializeLinkCheck
}
{
   <mlx_suppression_rule_182>
   Memcheck:Leak
   match-leak-kinds: indirect
   fun:calloc
   fun:_ZL33realizeClassMaybeSwiftMaybeRelockP10objc_classR8mutex_ttILb0EEb
   fun:_ZL32adjustCustomFlagsForMethodChangeP10objc_classP8method_t
   fun:_ZL32adjustCustomFlagsForMethodChangeP10objc_classP8method_t
   fun:_ZL16attachCategoriesP10objc_classPK21locstamped_category_tji
   fun:_ZN10objc_class11mangledNameEv
   fun:_ZN10objc_class11mangledNameEv
   fun:_ZL16addRemappedClassP10objc_classS0_
   fun:objc_initializeClassPair
   fun:objc_registerClassPair
   fun:__CFStringCreateImmutableFunnel3
   fun:__CFInitializeLinkCheck
}
{
   <mlx_suppression_rule_183>
   Memcheck:Leak
   match-leak-kinds: indirect
   fun:calloc
   fun:_ZL33realizeClassMaybeSwiftMaybeRelockP10objc_classR8mutex_ttILb0EEb
   fun:_ZL32adjustCustomFlagsForMethodChangeP10objc_classP8method_t
   fun:_ZL32adjustCustomFlagsForMethodChangeP10objc_classP8method_t
   fun:_ZL16attachCategoriesP10objc_classPK21locstamped_category_tji
   fun:_ZN10objc_class11mangledNameEv
   fun:_ZL16addRemappedClassP10objc_classS0_
   fun:objc_initializeClassPair
   fun:objc_registerClassPair
   fun:__CFStringCreateImmutableFunnel3
   fun:__CFInitializeLinkCheck
   fun:_ZN16ImageLoaderMachO11doImageInitERKN11ImageLoader11LinkContextE
}
{
   <mlx_suppression_rule_184>
   Memcheck:Leak
   match-leak-kinds: indirect
   fun:calloc
   fun:_ZL33realizeClassMaybeSwiftMaybeRelockP10objc_classR8mutex_ttILb0EEb
   fun:_ZL32adjustCustomFlagsForMethodChangeP10objc_classP8method_t
   fun:_ZL32adjustCustomFlagsForMethodChangeP10objc_classP8method_t
   fun:_ZL16attachCategoriesP10objc_classPK21locstamped_category_tji
   fun:_ZN10objc_class11mangledNameEv
   fun:_ZN10objc_class11mangledNameEv
   fun:_ZL16addRemappedClassP10objc_classS0_
   fun:objc_initializeClassPair
   fun:objc_registerClassPair
   fun:__CFStringCreateImmutableFunnel3
   fun:__CFInitializeLinkCheck
}
{
   <mlx_suppression_rule_185>
   Memcheck:Leak
   match-leak-kinds: indirect
   fun:calloc
   fun:_ZL33realizeClassMaybeSwiftMaybeRelockP10objc_classR8mutex_ttILb0EEb
   fun:_ZL32adjustCustomFlagsForMethodChangeP10objc_classP8method_t
   fun:_ZL32adjustCustomFlagsForMethodChangeP10objc_classP8method_t
   fun:_ZL16attachCategoriesP10objc_classPK21locstamped_category_tji
   fun:_ZN10objc_class11mangledNameEv
   fun:_ZL16addRemappedClassP10objc_classS0_
   fun:objc_initializeClassPair
   fun:objc_registerClassPair
   fun:__CFStringCreateImmutableFunnel3
   fun:__CFInitializeLinkCheck
   fun:_ZN16ImageLoaderMachO11doImageInitERKN11ImageLoader11LinkContextE
}
{
   <mlx_suppression_rule_186>
   Memcheck:Leak
   match-leak-kinds: indirect
   fun:calloc
   fun:_ZL33realizeClassMaybeSwiftMaybeRelockP10objc_classR8mutex_ttILb0EEb
   fun:_ZL32adjustCustomFlagsForMethodChangeP10objc_classP8method_t
   fun:_ZL32adjustCustomFlagsForMethodChangeP10objc_classP8method_t
   fun:_ZL16attachCategoriesP10objc_classPK21locstamped_category_tji
   fun:_ZN10objc_class11mangledNameEv
   fun:_ZN10objc_class11mangledNameEv
   fun:_ZL16addRemappedClassP10objc_classS0_
   fun:objc_initializeClassPair
   fun:_NSToDoAtProcessStart
   fun:_NSInitializePlatform
   fun:objc_msgLookup_fpret
}
{
   <mlx_suppression_rule_187>
   Memcheck:Leak
   match-leak-kinds: indirect
   fun:calloc
   fun:_ZL33realizeClassMaybeSwiftMaybeRelockP10objc_classR8mutex_ttILb0EEb
   fun:_ZL32adjustCustomFlagsForMethodChangeP10objc_classP8method_t
   fun:_ZL32adjustCustomFlagsForMethodChangeP10objc_classP8method_t
   fun:_ZL16attachCategoriesP10objc_classPK21locstamped_category_tji
   fun:_ZN10objc_class11mangledNameEv
   fun:_ZL16addRemappedClassP10objc_classS0_
   fun:objc_initializeClassPair
   fun:_NSToDoAtProcessStart
   fun:_NSInitializePlatform
   fun:objc_msgLookup_fpret
   fun:_ZN4dyldL12notifySingleE17dyld_image_statesPK11ImageLoaderPNS1_21InitializerTimingListE
}
{
   <mlx_suppression_rule_188>
   Memcheck:Leak
   match-leak-kinds: indirect
   fun:calloc
   fun:_ZL33realizeClassMaybeSwiftMaybeRelockP10objc_classR8mutex_ttILb0EEb
   fun:_ZL32adjustCustomFlagsForMethodChangeP10objc_classP8method_t
   fun:_ZL32adjustCustomFlagsForMethodChangeP10objc_classP8method_t
   fun:_ZL16attachCategoriesP10objc_classPK21locstamped_category_tji
   fun:_ZL16addRemappedClassP10objc_classS0_
   fun:objc_initializeClassPair
   fun:_NSToDoAtProcessStart
   fun:_NSInitializePlatform
   fun:objc_msgLookup_fpret
   fun:_ZN4dyldL12notifySingleE17dyld_image_statesPK11ImageLoaderPNS1_21InitializerTimingListE
   fun:_ZN11ImageLoader23recursiveInitializationERKNS_11LinkContextEjPKcRNS_21InitializerTimingListERNS_15UninitedUpwardsE
}
{
   <mlx_suppression_rule_189>
   Memcheck:Leak
   match-leak-kinds: indirect
   fun:calloc
   fun:_ZL33realizeClassMaybeSwiftMaybeRelockP10objc_classR8mutex_ttILb0EEb
   fun:_ZL32adjustCustomFlagsForMethodChangeP10objc_classP8method_t
   fun:_ZL32adjustCustomFlagsForMethodChangeP10objc_classP8method_t
   fun:_ZL16attachCategoriesP10objc_classPK21locstamped_category_tji
   fun:_ZN10objc_class11mangledNameEv
   fun:_ZL16addRemappedClassP10objc_classS0_
   fun:objc_initializeClassPair
   fun:_NSToDoAtProcessStart
   fun:_NSInitializePlatform
   fun:objc_msgLookup_fpret
   fun:_ZN4dyldL12notifySingleE17dyld_image_statesPK11ImageLoaderPNS1_21InitializerTimingListE
}
{
   <mlx_suppression_rule_190>
   Memcheck:Leak
   match-leak-kinds: indirect
   fun:calloc
   fun:_ZL33realizeClassMaybeSwiftMaybeRelockP10objc_classR8mutex_ttILb0EEb
   fun:_ZL32adjustCustomFlagsForMethodChangeP10objc_classP8method_t
   fun:_ZL32adjustCustomFlagsForMethodChangeP10objc_classP8method_t
   fun:_ZL16attachCategoriesP10objc_classPK21locstamped_category_tji
   fun:_ZL16addRemappedClassP10objc_classS0_
   fun:objc_initializeClassPair
   fun:_NSToDoAtProcessStart
   fun:_NSInitializePlatform
   fun:objc_msgLookup_fpret
   fun:_ZN4dyldL12notifySingleE17dyld_image_statesPK11ImageLoaderPNS1_21InitializerTimingListE
   fun:_ZN11ImageLoader23recursiveInitializationERKNS_11LinkContextEjPKcRNS_21InitializerTimingListERNS_15UninitedUpwardsE
}
{
   <mlx_suppression_rule_191>
   Memcheck:Leak
   match-leak-kinds: indirect
   fun:calloc
   fun:_ZL33realizeClassMaybeSwiftMaybeRelockP10objc_classR8mutex_ttILb0EEb
   fun:_ZL32adjustCustomFlagsForMethodChangeP10objc_classP8method_t
   fun:_ZL32adjustCustomFlagsForMethodChangeP10objc_classP8method_t
   fun:_ZL16attachCategoriesP10objc_classPK21locstamped_category_tji
   fun:_ZN10objc_class11mangledNameEv
   fun:_ZN10objc_class11mangledNameEv
   fun:_ZL16addRemappedClassP10objc_classS0_
   fun:objc_initializeClassPair
   fun:_NSToDoAtProcessStart
   fun:_NSInitializePlatform
   fun:objc_msgLookup_fpret
}
{
   <mlx_suppression_rule_192>
   Memcheck:Leak
   match-leak-kinds: indirect
   fun:calloc
   fun:_ZL33realizeClassMaybeSwiftMaybeRelockP10objc_classR8mutex_ttILb0EEb
   fun:_ZL32adjustCustomFlagsForMethodChangeP10objc_classP8method_t
   fun:_ZL32adjustCustomFlagsForMethodChangeP10objc_classP8method_t
   fun:_ZL16attachCategoriesP10objc_classPK21locstamped_category_tji
   fun:_ZN10objc_class11mangledNameEv
   fun:_ZL16addRemappedClassP10objc_classS0_
   fun:objc_initializeClassPair
   fun:_NSToDoAtProcessStart
   fun:_NSInitializePlatform
   fun:objc_msgLookup_fpret
   fun:_ZN4dyldL12notifySingleE17dyld_image_statesPK11ImageLoaderPNS1_21InitializerTimingListE
}
{
   <mlx_suppression_rule_193>
   Memcheck:Leak
   match-leak-kinds: indirect
   fun:malloc
   fun:_ZL24realizeClassWithoutSwiftP10objc_classS0_
   fun:_ZL32adjustCustomFlagsForMethodChangeP10objc_classP8method_t
   fun:_ZL32adjustCustomFlagsForMethodChangeP10objc_classP8method_t
   fun:_ZL16attachCategoriesP10objc_classPK21locstamped_category_tji
   fun:_ZN10objc_class11mangledNameEv
   fun:_ZL16addRemappedClassP10objc_classS0_
   fun:objc_initializeClassPair
   fun:_NSToDoAtProcessStart
   fun:_NSInitializePlatform
   fun:objc_msgLookup_fpret
   fun:_ZN4dyldL12notifySingleE17dyld_image_statesPK11ImageLoaderPNS1_21InitializerTimingListE
}
{
   <mlx_suppression_rule_194>
   Memcheck:Leak
   match-leak-kinds: indirect
   fun:calloc
   fun:_ZL33realizeClassMaybeSwiftMaybeRelockP10objc_classR8mutex_ttILb0EEb
   fun:_ZL32adjustCustomFlagsForMethodChangeP10objc_classP8method_t
   fun:_ZL32adjustCustomFlagsForMethodChangeP10objc_classP8method_t
   fun:_ZL16attachCategoriesP10objc_classPK21locstamped_category_tji
   fun:_ZL16addRemappedClassP10objc_classS0_
   fun:objc_initializeClassPair
   fun:_NSToDoAtProcessStart
   fun:_NSInitializePlatform
   fun:objc_msgLookup_fpret
   fun:_ZN4dyldL12notifySingleE17dyld_image_statesPK11ImageLoaderPNS1_21InitializerTimingListE
   fun:_ZN11ImageLoader23recursiveInitializationERKNS_11LinkContextEjPKcRNS_21InitializerTimingListERNS_15UninitedUpwardsE
}
{
   <mlx_suppression_rule_195>
   Memcheck:Leak
   match-leak-kinds: indirect
   fun:calloc
   fun:_ZL33realizeClassMaybeSwiftMaybeRelockP10objc_classR8mutex_ttILb0EEb
   fun:weak_register_no_lock
   fun:_NSToDoAtProcessStart
   fun:_NSInitializePlatform
   fun:objc_msgLookup_fpret
   fun:_ZN4dyldL12notifySingleE17dyld_image_statesPK11ImageLoaderPNS1_21InitializerTimingListE
   fun:_ZN11ImageLoader23recursiveInitializationERKNS_11LinkContextEjPKcRNS_21InitializerTimingListERNS_15UninitedUpwardsE
   fun:_ZN11ImageLoader23recursiveInitializationERKNS_11LinkContextEjPKcRNS_21InitializerTimingListERNS_15UninitedUpwardsE
   fun:_ZN11ImageLoader23recursiveInitializationERKNS_11LinkContextEjPKcRNS_21InitializerTimingListERNS_15UninitedUpwardsE
   fun:_ZN11ImageLoader23recursiveInitializationERKNS_11LinkContextEjPKcRNS_21InitializerTimingListERNS_15UninitedUpwardsE
   fun:_ZN11ImageLoader23recursiveInitializationERKNS_11LinkContextEjPKcRNS_21InitializerTimingListERNS_15UninitedUpwardsE
}
{
   <mlx_suppression_rule_196>
   Memcheck:Leak
   match-leak-kinds: indirect
   fun:calloc
   fun:_ZL33realizeClassMaybeSwiftMaybeRelockP10objc_classR8mutex_ttILb0EEb
   fun:_ZL32adjustCustomFlagsForMethodChangeP10objc_classP8method_t
   fun:_ZL32adjustCustomFlagsForMethodChangeP10objc_classP8method_t
   fun:_ZL16attachCategoriesP10objc_classPK21locstamped_category_tji
   fun:_ZN10objc_class11mangledNameEv
   fun:_ZL16addRemappedClassP10objc_classS0_
   fun:objc_initializeClassPair
   fun:_NSToDoAtProcessStart
   fun:_NSInitializePlatform
   fun:objc_msgLookup_fpret
   fun:_ZN4dyldL12notifySingleE17dyld_image_statesPK11ImageLoaderPNS1_21InitializerTimingListE
}
{
   <mlx_suppression_rule_197>
   Memcheck:Leak
   match-leak-kinds: indirect
   fun:calloc
   fun:_ZL33realizeClassMaybeSwiftMaybeRelockP10objc_classR8mutex_ttILb0EEb
   fun:weak_register_no_lock
   fun:_NSToDoAtProcessStart
   fun:_NSInitializePlatform
   fun:objc_msgLookup_fpret
   fun:_ZN4dyldL12notifySingleE17dyld_image_statesPK11ImageLoaderPNS1_21InitializerTimingListE
   fun:_ZN11ImageLoader23recursiveInitializationERKNS_11LinkContextEjPKcRNS_21InitializerTimingListERNS_15UninitedUpwardsE
   fun:_ZN11ImageLoader23recursiveInitializationERKNS_11LinkContextEjPKcRNS_21InitializerTimingListERNS_15UninitedUpwardsE
   fun:_ZN11ImageLoader23recursiveInitializationERKNS_11LinkContextEjPKcRNS_21InitializerTimingListERNS_15UninitedUpwardsE
   fun:_ZN11ImageLoader23recursiveInitializationERKNS_11LinkContextEjPKcRNS_21InitializerTimingListERNS_15UninitedUpwardsE
   fun:_ZN11ImageLoader23recursiveInitializationERKNS_11LinkContextEjPKcRNS_21InitializerTimingListERNS_15UninitedUpwardsE
}
{
   <mlx_suppression_rule_198>
   Memcheck:Leak
   match-leak-kinds: indirect
   fun:calloc
   fun:_ZL33realizeClassMaybeSwiftMaybeRelockP10objc_classR8mutex_ttILb0EEb
   fun:weak_register_no_lock
   fun:_NSToDoAtProcessStart
   fun:_NSInitializePlatform
   fun:objc_msgLookup_fpret
   fun:_ZN4dyldL12notifySingleE17dyld_image_statesPK11ImageLoaderPNS1_21InitializerTimingListE
   fun:_ZN11ImageLoader23recursiveInitializationERKNS_11LinkContextEjPKcRNS_21InitializerTimingListERNS_15UninitedUpwardsE
   fun:_ZN11ImageLoader23recursiveInitializationERKNS_11LinkContextEjPKcRNS_21InitializerTimingListERNS_15UninitedUpwardsE
   fun:_ZN11ImageLoader23recursiveInitializationERKNS_11LinkContextEjPKcRNS_21InitializerTimingListERNS_15UninitedUpwardsE
   fun:_ZN11ImageLoader23recursiveInitializationERKNS_11LinkContextEjPKcRNS_21InitializerTimingListERNS_15UninitedUpwardsE
   fun:_ZN11ImageLoader23recursiveInitializationERKNS_11LinkContextEjPKcRNS_21InitializerTimingListERNS_15UninitedUpwardsE
}
{
   <mlx_suppression_rule_199>
   Memcheck:Leak
   match-leak-kinds: indirect
   fun:calloc
   fun:_ZL33realizeClassMaybeSwiftMaybeRelockP10objc_classR8mutex_ttILb0EEb
   fun:_ZL32adjustCustomFlagsForMethodChangeP10objc_classP8method_t
   fun:_ZL32adjustCustomFlagsForMethodChangeP10objc_classP8method_t
   fun:_ZL16attachCategoriesP10objc_classPK21locstamped_category_tji
   fun:_ZN10objc_class11mangledNameEv
   fun:_ZL16addRemappedClassP10objc_classS0_
   fun:objc_initializeClassPair
   fun:_NSToDoAtProcessStart
   fun:_NSInitializePlatform
   fun:objc_msgLookup_fpret
   fun:_ZN4dyldL12notifySingleE17dyld_image_statesPK11ImageLoaderPNS1_21InitializerTimingListE
}
{
   <mlx_suppression_rule_200>
   Memcheck:Leak
   match-leak-kinds: indirect
   fun:calloc
   fun:_ZL33realizeClassMaybeSwiftMaybeRelockP10objc_classR8mutex_ttILb0EEb
   fun:_ZL32adjustCustomFlagsForMethodChangeP10objc_classP8method_t
   fun:_ZL32adjustCustomFlagsForMethodChangeP10objc_classP8method_t
   fun:_ZL16attachCategoriesP10objc_classPK21locstamped_category_tji
   fun:_ZL16addRemappedClassP10objc_classS0_
   fun:objc_initializeClassPair
   fun:_NSToDoAtProcessStart
   fun:_NSInitializePlatform
   fun:objc_msgLookup_fpret
   fun:_ZN4dyldL12notifySingleE17dyld_image_statesPK11ImageLoaderPNS1_21InitializerTimingListE
   fun:_ZN11ImageLoader23recursiveInitializationERKNS_11LinkContextEjPKcRNS_21InitializerTimingListERNS_15UninitedUpwardsE
}
{
   <mlx_suppression_rule_201>
   Memcheck:Leak
   match-leak-kinds: indirect
   fun:malloc
   fun:_ZL24realizeClassWithoutSwiftP10objc_classS0_
   fun:_ZL32adjustCustomFlagsForMethodChangeP10objc_classP8method_t
   fun:property_copyAttributeValue
   fun:_ZL10free_classP10objc_class
   fun:objc_msgLookup
   fun:_ZN4dyldL12notifySingleE17dyld_image_statesPK11ImageLoaderPNS1_21InitializerTimingListE
   fun:_ZN11ImageLoader23recursiveInitializationERKNS_11LinkContextEjPKcRNS_21InitializerTimingListERNS_15UninitedUpwardsE
   fun:_ZN11ImageLoader19processInitializersERKNS_11LinkContextEjRNS_21InitializerTimingListERNS_15UninitedUpwardsE
   fun:_ZN11ImageLoader19processInitializersERKNS_11LinkContextEjRNS_21InitializerTimingListERNS_15UninitedUpwardsE
   fun:_ZN11ImageLoader15runInitializersERKNS_11LinkContextERNS_21InitializerTimingListE
   fun:_ZN4dyld24initializeMainExecutableEv
}
{
   <mlx_suppression_rule_202>
   Memcheck:Leak
   match-leak-kinds: indirect
   fun:malloc
   fun:_ZL24realizeClassWithoutSwiftP10objc_classS0_
   fun:_ZL32adjustCustomFlagsForMethodChangeP10objc_classP8method_t
   fun:property_copyAttributeValue
   fun:_ZL10free_classP10objc_class
   fun:objc_msgLookup
   fun:_ZN4dyldL12notifySingleE17dyld_image_statesPK11ImageLoaderPNS1_21InitializerTimingListE
   fun:_ZN11ImageLoader23recursiveInitializationERKNS_11LinkContextEjPKcRNS_21InitializerTimingListERNS_15UninitedUpwardsE
   fun:_ZN11ImageLoader19processInitializersERKNS_11LinkContextEjRNS_21InitializerTimingListERNS_15UninitedUpwardsE
   fun:_ZN11ImageLoader19processInitializersERKNS_11LinkContextEjRNS_21InitializerTimingListERNS_15UninitedUpwardsE
   fun:_ZN11ImageLoader15runInitializersERKNS_11LinkContextERNS_21InitializerTimingListE
   fun:_ZN4dyld24initializeMainExecutableEv
}
{
   <mlx_suppression_rule_203>
   Memcheck:Leak
   match-leak-kinds: definite
   fun:calloc
   fun:_ZL12read_addressPmPK14dwarf_eh_basesh
   fun:+[NSBinder load]
   fun:objc_msgLookup_fp2ret
   fun:_ZN4dyldL12notifySingleE17dyld_image_statesPK11ImageLoaderPNS1_21InitializerTimingListE
   fun:_ZN11ImageLoader23recursiveInitializationERKNS_11LinkContextEjPKcRNS_21InitializerTimingListERNS_15UninitedUpwardsE
   fun:_ZN11ImageLoader23recursiveInitializationERKNS_11LinkContextEjPKcRNS_21InitializerTimingListERNS_15UninitedUpwardsE
   fun:_ZN11ImageLoader19processInitializersERKNS_11LinkContextEjRNS_21InitializerTimingListERNS_15UninitedUpwardsE
   fun:_ZN11ImageLoader15runInitializersERKNS_11LinkContextERNS_21InitializerTimingListE
   fun:_ZN4dyld24initializeMainExecutableEv
   fun:_ZN4dyld5_mainEPK12macho_headermiPPKcS5_S5_Pm
   fun:_ZN13dyldbootstrap5startEPKN5dyld311MachOLoadedEiPPKcS3_Pm
}
{
   <mlx_suppression_rule_204>
   Memcheck:Leak
   match-leak-kinds: definite
   fun:calloc
   fun:_ZL12read_addressPmPK14dwarf_eh_basesh
   fun:+[NSBinder load]
   fun:objc_msgLookup_fp2ret
   fun:_ZN4dyldL12notifySingleE17dyld_image_statesPK11ImageLoaderPNS1_21InitializerTimingListE
   fun:_ZN11ImageLoader23recursiveInitializationERKNS_11LinkContextEjPKcRNS_21InitializerTimingListERNS_15UninitedUpwardsE
   fun:_ZN11ImageLoader23recursiveInitializationERKNS_11LinkContextEjPKcRNS_21InitializerTimingListERNS_15UninitedUpwardsE
   fun:_ZN11ImageLoader19processInitializersERKNS_11LinkContextEjRNS_21InitializerTimingListERNS_15UninitedUpwardsE
   fun:_ZN11ImageLoader15runInitializersERKNS_11LinkContextERNS_21InitializerTimingListE
   fun:_ZN4dyld24initializeMainExecutableEv
   fun:_ZN4dyld5_mainEPK12macho_headermiPPKcS5_S5_Pm
   fun:_ZN13dyldbootstrap5startEPKN5dyld311MachOLoadedEiPPKcS3_Pm
}
{
   <mlx_suppression_rule_205>
   Memcheck:Leak
   match-leak-kinds: definite
   fun:calloc
   fun:_ZL12read_addressPmPK14dwarf_eh_basesh
   fun:+[NSBinder load]
   fun:objc_msgLookup_fp2ret
   fun:_ZN4dyldL12notifySingleE17dyld_image_statesPK11ImageLoaderPNS1_21InitializerTimingListE
   fun:_ZN11ImageLoader23recursiveInitializationERKNS_11LinkContextEjPKcRNS_21InitializerTimingListERNS_15UninitedUpwardsE
   fun:_ZN11ImageLoader23recursiveInitializationERKNS_11LinkContextEjPKcRNS_21InitializerTimingListERNS_15UninitedUpwardsE
   fun:_ZN11ImageLoader19processInitializersERKNS_11LinkContextEjRNS_21InitializerTimingListERNS_15UninitedUpwardsE
   fun:_ZN11ImageLoader15runInitializersERKNS_11LinkContextERNS_21InitializerTimingListE
   fun:_ZN4dyld24initializeMainExecutableEv
   fun:_ZN4dyld5_mainEPK12macho_headermiPPKcS5_S5_Pm
   fun:_ZN13dyldbootstrap5startEPKN5dyld311MachOLoadedEiPPKcS3_Pm
}
{
   <mlx_suppression_rule_206>
   Memcheck:Leak
   match-leak-kinds: definite
   fun:calloc
   fun:_ZL12read_addressPmPK14dwarf_eh_basesh
   fun:+[NSBinder load]
   fun:objc_msgLookup_fp2ret
   fun:_ZN4dyldL12notifySingleE17dyld_image_statesPK11ImageLoaderPNS1_21InitializerTimingListE
   fun:_ZN11ImageLoader23recursiveInitializationERKNS_11LinkContextEjPKcRNS_21InitializerTimingListERNS_15UninitedUpwardsE
   fun:_ZN11ImageLoader23recursiveInitializationERKNS_11LinkContextEjPKcRNS_21InitializerTimingListERNS_15UninitedUpwardsE
   fun:_ZN11ImageLoader19processInitializersERKNS_11LinkContextEjRNS_21InitializerTimingListERNS_15UninitedUpwardsE
   fun:_ZN11ImageLoader15runInitializersERKNS_11LinkContextERNS_21InitializerTimingListE
   fun:_ZN4dyld24initializeMainExecutableEv
   fun:_ZN4dyld5_mainEPK12macho_headermiPPKcS5_S5_Pm
   fun:_ZN13dyldbootstrap5startEPKN5dyld311MachOLoadedEiPPKcS3_Pm
}
{
   <mlx_suppression_rule_207>
   Memcheck:Leak
   match-leak-kinds: possible
   fun:calloc
   fun:_notify_fork_child
   fun:_notify_fork_child
   fun:notify_register_check
   fun:__si_module_static_ds_block_invoke
   fun:_dispatch_client_callout
   fun:_dispatch_once_callout
   fun:si_module_static_ds
   fun:si_module_with_name
   fun:si_module_config_modules_for_category
   fun:__si_module_static_search_block_invoke
   fun:_dispatch_client_callout
}
{
   <mlx_suppression_rule_208>
   Memcheck:Leak
   match-leak-kinds: possible
   fun:calloc
   fun:_notify_fork_child
   fun:_notify_fork_child
   fun:notify_register_check
   fun:__si_module_static_ds_block_invoke
   fun:_dispatch_client_callout
   fun:_dispatch_once_callout
   fun:si_module_static_ds
   fun:si_module_with_name
   fun:si_module_config_modules_for_category
   fun:__si_module_static_search_block_invoke
   fun:_dispatch_client_callout
}
{
   <mlx_suppression_rule_209>
   Memcheck:Leak
   match-leak-kinds: possible
   fun:calloc
   fun:_notify_fork_child
   fun:_notify_fork_child
   fun:notify_register_check
   fun:__si_module_static_ds_block_invoke
   fun:_dispatch_client_callout
   fun:_dispatch_once_callout
   fun:si_module_static_ds
   fun:si_module_with_name
   fun:si_module_config_modules_for_category
   fun:__si_module_static_search_block_invoke
   fun:_dispatch_client_callout
}
{
   <mlx_suppression_rule_210>
   Memcheck:Leak
   match-leak-kinds: possible
   fun:calloc
   fun:_notify_fork_child
   fun:_notify_fork_child
   fun:notify_register_check
   fun:__si_module_static_ds_block_invoke
   fun:_dispatch_client_callout
   fun:_dispatch_once_callout
   fun:si_module_static_ds
   fun:si_module_with_name
   fun:si_module_config_modules_for_category
   fun:__si_module_static_search_block_invoke
   fun:_dispatch_client_callout
}
{
   <mlx_suppression_rule_211>
   Memcheck:Leak
   match-leak-kinds: possible
   fun:calloc
   fun:_notify_fork_child
   fun:_notify_fork_child
   fun:notify_register_check
   fun:_os_trace_prefs_and_mode_refresh_slow
   fun:_os_activity_create_addr
   fun:ds_user_byuid
   fun:si_user_byuid
   fun:search_item_bynumber
   fun:search_user_byuid
   fun:si_user_byuid
   fun:getpwuid_r
}
{
   <mlx_suppression_rule_212>
   Memcheck:Leak
   match-leak-kinds: indirect
   fun:malloc
   fun:_ZL24realizeClassWithoutSwiftP10objc_classS0_
   fun:_ZL32adjustCustomFlagsForMethodChangeP10objc_classP8method_t
   fun:_ZL32adjustCustomFlagsForMethodChangeP10objc_classP8method_t
   fun:_ZL16attachCategoriesP10objc_classPK21locstamped_category_tji
   fun:_ZL16addRemappedClassP10objc_classS0_
   fun:objc_initializeClassPair
   fun:_NSToDoAtProcessStart
   fun:_NSInitializePlatform
   fun:objc_msgLookup_fpret
   fun:_ZN4dyldL12notifySingleE17dyld_image_statesPK11ImageLoaderPNS1_21InitializerTimingListE
   fun:_ZN11ImageLoader23recursiveInitializationERKNS_11LinkContextEjPKcRNS_21InitializerTimingListERNS_15UninitedUpwardsE
}
{
   <mlx_suppression_rule_213>
   Memcheck:Leak
   match-leak-kinds: reachable
   fun:calloc
   fun:_ZL13getClass_implPKc
   fun:_ZN11objc_object27sidetable_clearDeallocatingEv
   fun:_ZL19_finishInitializingP10objc_classS0_
   fun:lookUpImpOrForward
   fun:_dispatch_client_callout
   fun:_dispatch_once_callout
   fun:_os_log_preferences_refresh_process
   fun:_os_activity_create_addr
   fun:ds_user_byuid
   fun:si_user_byuid
   fun:search_item_bynumber
}
{
   <mlx_suppression_rule_214>
   Memcheck:Leak
   match-leak-kinds: reachable
   fun:calloc
   fun:_ZL13getClass_implPKc
   fun:_ZN11objc_object27sidetable_clearDeallocatingEv
   fun:_ZL19_finishInitializingP10objc_classS0_
   fun:lookUpImpOrForward
   fun:os_activity_scope_enter
   fun:ds_user_byuid
   fun:si_user_byuid
   fun:search_item_bynumber
   fun:search_user_byuid
   fun:si_user_byuid
   fun:getpwuid_r
}
{
   <mlx_suppression_rule_215>
   Memcheck:Leak
   match-leak-kinds: reachable
   fun:calloc
   fun:_ZL13getClass_implPKc
   fun:_ZN11objc_object27sidetable_clearDeallocatingEv
   fun:_ZL19_finishInitializingP10objc_classS0_
   fun:_ZL13addNamedClassP10objc_classPKcS0_
   fun:CFRetain
   fun:__CFStringCreateImmutableFunnel3
   fun:__CFStringCreateImmutableFunnel3
   fun:_CFLibraryVersionCompare
   fun:_ZN16ImageLoaderMachO11doImageInitERKN11ImageLoader11LinkContextE
   fun:_ZN16ImageLoaderMachO16doInitializationERKN11ImageLoader11LinkContextE
   fun:_ZN11ImageLoader23recursiveInitializationERKNS_11LinkContextEjPKcRNS_21InitializerTimingListERNS_15UninitedUpwardsE
}
{
   <mlx_suppression_rule_216>
   Memcheck:Leak
   match-leak-kinds: reachable
   fun:calloc
   fun:_ZL12read_addressPmPK14dwarf_eh_basesh
   fun:weak_register_no_lock
   fun:____NSThreads_block_invoke
   fun:_dispatch_client_callout
   fun:_dispatch_once_callout
   fun:_NSThreadGet0
   fun:_NSInitializePlatform
   fun:objc_msgLookup_fpret
   fun:_ZN4dyldL12notifySingleE17dyld_image_statesPK11ImageLoaderPNS1_21InitializerTimingListE
   fun:_ZN11ImageLoader23recursiveInitializationERKNS_11LinkContextEjPKcRNS_21InitializerTimingListERNS_15UninitedUpwardsE
   fun:_ZN11ImageLoader23recursiveInitializationERKNS_11LinkContextEjPKcRNS_21InitializerTimingListERNS_15UninitedUpwardsE
}
{
   <mlx_suppression_rule_217>
   Memcheck:Leak
   match-leak-kinds: reachable
   fun:calloc
   fun:_ZL13getClass_implPKc
   fun:_ZN11objc_object27sidetable_clearDeallocatingEv
   fun:_ZL19_finishInitializingP10objc_classS0_
   fun:lookUpImpOrForward
   fun:-[NSThread init]
   fun:____NSThreads_block_invoke
   fun:_dispatch_client_callout
   fun:_dispatch_once_callout
   fun:_NSThreadGet0
   fun:_NSInitializePlatform
   fun:objc_msgLookup_fpret
}
{
   <mlx_suppression_rule_218>
   Memcheck:Leak
   match-leak-kinds: reachable
   fun:calloc
   fun:_ZL13getClass_implPKc
   fun:_ZN11objc_object27sidetable_clearDeallocatingEv
   fun:_ZL19_finishInitializingP10objc_classS0_
   fun:lookUpImpOrForward
   fun:+[NSBinder load]
   fun:objc_msgLookup_fp2ret
   fun:_ZN4dyldL12notifySingleE17dyld_image_statesPK11ImageLoaderPNS1_21InitializerTimingListE
   fun:_ZN11ImageLoader23recursiveInitializationERKNS_11LinkContextEjPKcRNS_21InitializerTimingListERNS_15UninitedUpwardsE
   fun:_ZN11ImageLoader23recursiveInitializationERKNS_11LinkContextEjPKcRNS_21InitializerTimingListERNS_15UninitedUpwardsE
   fun:_ZN11ImageLoader19processInitializersERKNS_11LinkContextEjRNS_21InitializerTimingListERNS_15UninitedUpwardsE
   fun:_ZN11ImageLoader15runInitializersERKNS_11LinkContextERNS_21InitializerTimingListE
}
{
   <mlx_suppression_rule_219>
   Memcheck:Leak
   match-leak-kinds: indirect
   fun:malloc
   fun:_ZL24realizeClassWithoutSwiftP10objc_classS0_
   fun:_ZL32adjustCustomFlagsForMethodChangeP10objc_classP8method_t
   fun:property_copyAttributeValue
   fun:_ZL10free_classP10objc_class
   fun:objc_msgLookup
   fun:_ZN4dyldL12notifySingleE17dyld_image_statesPK11ImageLoaderPNS1_21InitializerTimingListE
   fun:_ZN11ImageLoader23recursiveInitializationERKNS_11LinkContextEjPKcRNS_21InitializerTimingListERNS_15UninitedUpwardsE
   fun:_ZN11ImageLoader19processInitializersERKNS_11LinkContextEjRNS_21InitializerTimingListERNS_15UninitedUpwardsE
   fun:_ZN11ImageLoader19processInitializersERKNS_11LinkContextEjRNS_21InitializerTimingListERNS_15UninitedUpwardsE
   fun:_ZN11ImageLoader15runInitializersERKNS_11LinkContextERNS_21InitializerTimingListE
   fun:_ZN4dyld24initializeMainExecutableEv
}
{
   <mlx_suppression_rule_220>
   Memcheck:Leak
   match-leak-kinds: definite
   fun:calloc
   fun:_ZL13getClass_implPKc
   fun:_ZN11objc_object27sidetable_clearDeallocatingEv
   fun:_ZL19_finishInitializingP10objc_classS0_
   fun:lookUpImpOrForward
   fun:_CFProcessPath
   fun:_CFLibraryVersionCompare
   fun:_ZN16ImageLoaderMachO11doImageInitERKN11ImageLoader11LinkContextE
   fun:_ZN16ImageLoaderMachO16doInitializationERKN11ImageLoader11LinkContextE
   fun:_ZN11ImageLoader23recursiveInitializationERKNS_11LinkContextEjPKcRNS_21InitializerTimingListERNS_15UninitedUpwardsE
   fun:_ZN11ImageLoader23recursiveInitializationERKNS_11LinkContextEjPKcRNS_21InitializerTimingListERNS_15UninitedUpwardsE
   fun:_ZN11ImageLoader23recursiveInitializationERKNS_11LinkContextEjPKcRNS_21InitializerTimingListERNS_15UninitedUpwardsE
}
{
   <mlx_suppression_rule_221>
   Memcheck:Leak
   match-leak-kinds: definite
   fun:calloc
   fun:_ZL13getClass_implPKc
   fun:_ZN11objc_object27sidetable_clearDeallocatingEv
   fun:_ZL19_finishInitializingP10objc_classS0_
   fun:lookUpImpOrForward
   fun:_CFLibraryVersionCompare
   fun:_ZN16ImageLoaderMachO11doImageInitERKN11ImageLoader11LinkContextE
   fun:_ZN16ImageLoaderMachO16doInitializationERKN11ImageLoader11LinkContextE
   fun:_ZN11ImageLoader23recursiveInitializationERKNS_11LinkContextEjPKcRNS_21InitializerTimingListERNS_15UninitedUpwardsE
   fun:_ZN11ImageLoader23recursiveInitializationERKNS_11LinkContextEjPKcRNS_21InitializerTimingListERNS_15UninitedUpwardsE
   fun:_ZN11ImageLoader23recursiveInitializationERKNS_11LinkContextEjPKcRNS_21InitializerTimingListERNS_15UninitedUpwardsE
   fun:_ZN11ImageLoader23recursiveInitializationERKNS_11LinkContextEjPKcRNS_21InitializerTimingListERNS_15UninitedUpwardsE
}
{
   <mlx_suppression_rule_222>
   Memcheck:Leak
   match-leak-kinds: definite
   fun:calloc
   fun:_ZL13getClass_implPKc
   fun:_ZN11objc_object27sidetable_clearDeallocatingEv
   fun:_ZL19_finishInitializingP10objc_classS0_
   fun:lookUpImpOrForward
   fun:_CFLocaleCopyCurrentGuts
   fun:_CFLibraryVersionCompare
   fun:_ZN16ImageLoaderMachO11doImageInitERKN11ImageLoader11LinkContextE
   fun:_ZN16ImageLoaderMachO16doInitializationERKN11ImageLoader11LinkContextE
   fun:_ZN11ImageLoader23recursiveInitializationERKNS_11LinkContextEjPKcRNS_21InitializerTimingListERNS_15UninitedUpwardsE
   fun:_ZN11ImageLoader23recursiveInitializationERKNS_11LinkContextEjPKcRNS_21InitializerTimingListERNS_15UninitedUpwardsE
   fun:_ZN11ImageLoader23recursiveInitializationERKNS_11LinkContextEjPKcRNS_21InitializerTimingListERNS_15UninitedUpwardsE
}
{
   <mlx_suppression_rule_223>
   Memcheck:Leak
   match-leak-kinds: definite
   fun:calloc
   fun:_ZL13getClass_implPKc
   fun:_ZN11objc_object27sidetable_clearDeallocatingEv
   fun:_ZL19_finishInitializingP10objc_classS0_
   fun:lookUpImpOrForward
   fun:_NSInitializePlatform
   fun:objc_msgLookup_fpret
   fun:_ZN4dyldL12notifySingleE17dyld_image_statesPK11ImageLoaderPNS1_21InitializerTimingListE
   fun:_ZN11ImageLoader23recursiveInitializationERKNS_11LinkContextEjPKcRNS_21InitializerTimingListERNS_15UninitedUpwardsE
   fun:_ZN11ImageLoader23recursiveInitializationERKNS_11LinkContextEjPKcRNS_21InitializerTimingListERNS_15UninitedUpwardsE
   fun:_ZN11ImageLoader23recursiveInitializationERKNS_11LinkContextEjPKcRNS_21InitializerTimingListERNS_15UninitedUpwardsE
   fun:_ZN11ImageLoader23recursiveInitializationERKNS_11LinkContextEjPKcRNS_21InitializerTimingListERNS_15UninitedUpwardsE
}
{
   <mlx_suppression_rule_224>
   Memcheck:Leak
   match-leak-kinds: definite
   fun:calloc
   fun:_ZL13getClass_implPKc
   fun:_ZN11objc_object27sidetable_clearDeallocatingEv
   fun:_ZL19_finishInitializingP10objc_classS0_
   fun:_ZL13addNamedClassP10objc_classPKcS0_
   fun:CFBasicHashCreate
   fun:____NSThreads_block_invoke
   fun:_dispatch_client_callout
   fun:_dispatch_once_callout
   fun:_NSThreadGet0
   fun:_NSInitializePlatform
   fun:objc_msgLookup_fpret
}
{
   <mlx_suppression_rule_225>
   Memcheck:Leak
   match-leak-kinds: definite
   fun:calloc
   fun:_ZL13getClass_implPKc
   fun:_ZN11objc_object27sidetable_clearDeallocatingEv
   fun:_ZL19_finishInitializingP10objc_classS0_
   fun:lookUpImpOrForward
   fun:____NSThreads_block_invoke
   fun:_dispatch_client_callout
   fun:_dispatch_once_callout
   fun:_NSThreadGet0
   fun:_NSInitializePlatform
   fun:objc_msgLookup_fpret
   fun:_ZN4dyldL12notifySingleE17dyld_image_statesPK11ImageLoaderPNS1_21InitializerTimingListE
}
{
   <mlx_suppression_rule_226>
   Memcheck:Leak
   match-leak-kinds: definite
   fun:calloc
   fun:_ZL13getClass_implPKc
   fun:_ZN11objc_object27sidetable_clearDeallocatingEv
   fun:_ZL19_finishInitializingP10objc_classS0_
   fun:lookUpImpOrForward
   fun:-[NSThread init]
   fun:____NSThreads_block_invoke
   fun:_dispatch_client_callout
   fun:_dispatch_once_callout
   fun:_NSThreadGet0
   fun:_NSInitializePlatform
   fun:objc_msgLookup_fpret
}
{
   <mlx_suppression_rule_227>
   Memcheck:Leak
   match-leak-kinds: definite
   fun:calloc
   fun:_ZL13getClass_implPKc
   fun:_ZN11objc_object27sidetable_clearDeallocatingEv
   fun:_ZL19_finishInitializingP10objc_classS0_
   fun:lookUpImpOrForward
   fun:CFBasicHashSetValue
   fun:-[NSThread init]
   fun:____NSThreads_block_invoke
   fun:_dispatch_client_callout
   fun:_dispatch_once_callout
   fun:_NSThreadGet0
   fun:_NSInitializePlatform
}
{
   <mlx_suppression_rule_228>
   Memcheck:Leak
   match-leak-kinds: definite
   fun:calloc
   fun:_ZL13getClass_implPKc
   fun:_ZN11objc_object27sidetable_clearDeallocatingEv
   fun:_ZL19_finishInitializingP10objc_classS0_
   fun:lookUpImpOrForward
   fun:+[NSBinder load]
   fun:objc_msgLookup_fp2ret
   fun:_ZN4dyldL12notifySingleE17dyld_image_statesPK11ImageLoaderPNS1_21InitializerTimingListE
   fun:_ZN11ImageLoader23recursiveInitializationERKNS_11LinkContextEjPKcRNS_21InitializerTimingListERNS_15UninitedUpwardsE
   fun:_ZN11ImageLoader23recursiveInitializationERKNS_11LinkContextEjPKcRNS_21InitializerTimingListERNS_15UninitedUpwardsE
   fun:_ZN11ImageLoader19processInitializersERKNS_11LinkContextEjRNS_21InitializerTimingListERNS_15UninitedUpwardsE
   fun:_ZN11ImageLoader15runInitializersERKNS_11LinkContextERNS_21InitializerTimingListE
}
{
   <mlx_suppression_rule_229>
   Memcheck:Leak
   match-leak-kinds: definite
   fun:calloc
   fun:_ZL13getClass_implPKc
   fun:_ZN11objc_object27sidetable_clearDeallocatingEv
   fun:_ZL19_finishInitializingP10objc_classS0_
   fun:lookUpImpOrForward
   fun:+[NSBinder load]
   fun:objc_msgLookup_fp2ret
   fun:_ZN4dyldL12notifySingleE17dyld_image_statesPK11ImageLoaderPNS1_21InitializerTimingListE
   fun:_ZN11ImageLoader23recursiveInitializationERKNS_11LinkContextEjPKcRNS_21InitializerTimingListERNS_15UninitedUpwardsE
   fun:_ZN11ImageLoader23recursiveInitializationERKNS_11LinkContextEjPKcRNS_21InitializerTimingListERNS_15UninitedUpwardsE
   fun:_ZN11ImageLoader19processInitializersERKNS_11LinkContextEjRNS_21InitializerTimingListERNS_15UninitedUpwardsE
   fun:_ZN11ImageLoader15runInitializersERKNS_11LinkContextERNS_21InitializerTimingListE
}
{
   <mlx_suppression_rule_230>
   Memcheck:Leak
   match-leak-kinds: definite
   fun:calloc
   fun:_ZL13getClass_implPKc
   fun:_ZN11objc_object27sidetable_clearDeallocatingEv
   fun:_ZL19_finishInitializingP10objc_classS0_
   fun:lookUpImpOrForward
   fun:+[NSString initialize]
   fun:_objc_addWillInitializeClassFunc
   fun:_ZN13list_array_ttI8method_t13method_list_t24method_list_t_authed_ptrE11attachListsEPKPS1_j
   fun:_ZL24realizeClassWithoutSwiftP10objc_classS0_
   fun:-[NSObject dealloc]
   fun:lookUpImpOrForward
   fun:NSClassFromString
}
{
   <mlx_suppression_rule_231>
   Memcheck:Leak
   match-leak-kinds: definite
   fun:calloc
   fun:_ZL13getClass_implPKc
   fun:_ZN11objc_object27sidetable_clearDeallocatingEv
   fun:_ZL19_finishInitializingP10objc_classS0_
   fun:lookUpImpOrForward
   fun:NSClassFromString
   fun:___NSIsProKitApplication_block_invoke
   fun:_dispatch_client_callout
   fun:_dispatch_once_callout
   fun:_NSIsProKitApplication
   fun:+[NSColorSpaceColor load]
   fun:objc_msgLookup_fp2ret
}
{
   <mlx_suppression_rule_232>
   Memcheck:Leak
   match-leak-kinds: reachable
   fun:calloc
   fun:_object_remove_assocations
   fun:_ZNK8method_t11remappedImpEb
   fun:_ZN13list_array_ttI10property_t15property_list_t6RawPtrE11attachListsEPKPS1_j
   fun:_ZNK13method_list_t9duplicateEv
   fun:_ZN10class_rw_t8extAllocEPK10class_ro_tb
   fun:_ZN10class_rw_t8extAllocEPK10class_ro_tb
   fun:_ZN10class_rw_t8extAllocEPK10class_ro_tb
   fun:_ZL24realizeClassWithoutSwiftP10objc_classS0_
   fun:-[NSObject dealloc]
   fun:lookUpImpOrForward
   fun:_xpc_pipe_routine
}
{
   <mlx_suppression_rule_233>
   Memcheck:Leak
   match-leak-kinds: reachable
   fun:calloc
   fun:_ZL18cache_collect_freeP8bucket_tj
   fun:+[NSObject new]
   fun:__CFDictionaryCreateGeneric
   fun:_CFStringGetUserDefaultEncoding
   fun:_ZN16ImageLoaderMachO11doImageInitERKN11ImageLoader11LinkContextE
   fun:_ZN16ImageLoaderMachO16doInitializationERKN11ImageLoader11LinkContextE
   fun:_ZN11ImageLoader23recursiveInitializationERKNS_11LinkContextEjPKcRNS_21InitializerTimingListERNS_15UninitedUpwardsE
   fun:_ZN11ImageLoader23recursiveInitializationERKNS_11LinkContextEjPKcRNS_21InitializerTimingListERNS_15UninitedUpwardsE
   fun:_ZN11ImageLoader23recursiveInitializationERKNS_11LinkContextEjPKcRNS_21InitializerTimingListERNS_15UninitedUpwardsE
   fun:_ZN11ImageLoader23recursiveInitializationERKNS_11LinkContextEjPKcRNS_21InitializerTimingListERNS_15UninitedUpwardsE
   fun:_ZN11ImageLoader23recursiveInitializationERKNS_11LinkContextEjPKcRNS_21InitializerTimingListERNS_15UninitedUpwardsE
}
{
   <mlx_suppression_rule_234>
   Memcheck:Leak
   match-leak-kinds: reachable
   fun:calloc
   fun:_ZL18cache_collect_freeP8bucket_tj
   fun:+[NSObject new]
   fun:__CFDictionaryCreateGeneric
   fun:_CFStringGetUserDefaultEncoding
   fun:_ZN16ImageLoaderMachO11doImageInitERKN11ImageLoader11LinkContextE
   fun:_ZN16ImageLoaderMachO16doInitializationERKN11ImageLoader11LinkContextE
   fun:_ZN11ImageLoader23recursiveInitializationERKNS_11LinkContextEjPKcRNS_21InitializerTimingListERNS_15UninitedUpwardsE
   fun:_ZN11ImageLoader23recursiveInitializationERKNS_11LinkContextEjPKcRNS_21InitializerTimingListERNS_15UninitedUpwardsE
   fun:_ZN11ImageLoader23recursiveInitializationERKNS_11LinkContextEjPKcRNS_21InitializerTimingListERNS_15UninitedUpwardsE
   fun:_ZN11ImageLoader23recursiveInitializationERKNS_11LinkContextEjPKcRNS_21InitializerTimingListERNS_15UninitedUpwardsE
   fun:_ZN11ImageLoader23recursiveInitializationERKNS_11LinkContextEjPKcRNS_21InitializerTimingListERNS_15UninitedUpwardsE
}
{
   <mlx_suppression_rule_235>
   Memcheck:Leak
   match-leak-kinds: reachable
   fun:calloc
   fun:_ZL18cache_collect_freeP8bucket_tj
   fun:+[NSObject new]
   fun:__CFDictionaryCreateGeneric
   fun:_CFStringGetUserDefaultEncoding
   fun:_ZN16ImageLoaderMachO11doImageInitERKN11ImageLoader11LinkContextE
   fun:_ZN16ImageLoaderMachO16doInitializationERKN11ImageLoader11LinkContextE
   fun:_ZN11ImageLoader23recursiveInitializationERKNS_11LinkContextEjPKcRNS_21InitializerTimingListERNS_15UninitedUpwardsE
   fun:_ZN11ImageLoader23recursiveInitializationERKNS_11LinkContextEjPKcRNS_21InitializerTimingListERNS_15UninitedUpwardsE
   fun:_ZN11ImageLoader23recursiveInitializationERKNS_11LinkContextEjPKcRNS_21InitializerTimingListERNS_15UninitedUpwardsE
   fun:_ZN11ImageLoader23recursiveInitializationERKNS_11LinkContextEjPKcRNS_21InitializerTimingListERNS_15UninitedUpwardsE
   fun:_ZN11ImageLoader23recursiveInitializationERKNS_11LinkContextEjPKcRNS_21InitializerTimingListERNS_15UninitedUpwardsE
}
{
   <mlx_suppression_rule_236>
   Memcheck:Leak
   match-leak-kinds: reachable
   fun:calloc
   fun:_ZL18cache_collect_freeP8bucket_tj
   fun:+[NSObject new]
   fun:__CFDictionaryCreateGeneric
   fun:_CFStringGetUserDefaultEncoding
   fun:_ZN16ImageLoaderMachO11doImageInitERKN11ImageLoader11LinkContextE
   fun:_ZN16ImageLoaderMachO16doInitializationERKN11ImageLoader11LinkContextE
   fun:_ZN11ImageLoader23recursiveInitializationERKNS_11LinkContextEjPKcRNS_21InitializerTimingListERNS_15UninitedUpwardsE
   fun:_ZN11ImageLoader23recursiveInitializationERKNS_11LinkContextEjPKcRNS_21InitializerTimingListERNS_15UninitedUpwardsE
   fun:_ZN11ImageLoader23recursiveInitializationERKNS_11LinkContextEjPKcRNS_21InitializerTimingListERNS_15UninitedUpwardsE
   fun:_ZN11ImageLoader23recursiveInitializationERKNS_11LinkContextEjPKcRNS_21InitializerTimingListERNS_15UninitedUpwardsE
   fun:_ZN11ImageLoader23recursiveInitializationERKNS_11LinkContextEjPKcRNS_21InitializerTimingListERNS_15UninitedUpwardsE
}
{
   <mlx_suppression_rule_237>
   Memcheck:Leak
   match-leak-kinds: reachable
   fun:calloc
   fun:_ZL18cache_collect_freeP8bucket_tj
   fun:+[NSObject new]
   fun:__CFDictionaryCreateGeneric
   fun:_CFStringGetUserDefaultEncoding
   fun:_ZN16ImageLoaderMachO11doImageInitERKN11ImageLoader11LinkContextE
   fun:_ZN16ImageLoaderMachO16doInitializationERKN11ImageLoader11LinkContextE
   fun:_ZN11ImageLoader23recursiveInitializationERKNS_11LinkContextEjPKcRNS_21InitializerTimingListERNS_15UninitedUpwardsE
   fun:_ZN11ImageLoader23recursiveInitializationERKNS_11LinkContextEjPKcRNS_21InitializerTimingListERNS_15UninitedUpwardsE
   fun:_ZN11ImageLoader23recursiveInitializationERKNS_11LinkContextEjPKcRNS_21InitializerTimingListERNS_15UninitedUpwardsE
   fun:_ZN11ImageLoader23recursiveInitializationERKNS_11LinkContextEjPKcRNS_21InitializerTimingListERNS_15UninitedUpwardsE
   fun:_ZN11ImageLoader23recursiveInitializationERKNS_11LinkContextEjPKcRNS_21InitializerTimingListERNS_15UninitedUpwardsE
}
{
   <mlx_suppression_rule_238>
   Memcheck:Leak
   match-leak-kinds: reachable
   fun:calloc
   fun:_ZL18cache_collect_freeP8bucket_tj
   fun:+[NSObject new]
   fun:__CFDictionaryCreateGeneric
   fun:_CFStringGetUserDefaultEncoding
   fun:_ZN16ImageLoaderMachO11doImageInitERKN11ImageLoader11LinkContextE
   fun:_ZN16ImageLoaderMachO16doInitializationERKN11ImageLoader11LinkContextE
   fun:_ZN11ImageLoader23recursiveInitializationERKNS_11LinkContextEjPKcRNS_21InitializerTimingListERNS_15UninitedUpwardsE
   fun:_ZN11ImageLoader23recursiveInitializationERKNS_11LinkContextEjPKcRNS_21InitializerTimingListERNS_15UninitedUpwardsE
   fun:_ZN11ImageLoader23recursiveInitializationERKNS_11LinkContextEjPKcRNS_21InitializerTimingListERNS_15UninitedUpwardsE
   fun:_ZN11ImageLoader23recursiveInitializationERKNS_11LinkContextEjPKcRNS_21InitializerTimingListERNS_15UninitedUpwardsE
   fun:_ZN11ImageLoader23recursiveInitializationERKNS_11LinkContextEjPKcRNS_21InitializerTimingListERNS_15UninitedUpwardsE
}
{
   <mlx_suppression_rule_239>
   Memcheck:Leak
   match-leak-kinds: reachable
   fun:calloc
   fun:_ZL18cache_collect_freeP8bucket_tj
   fun:+[NSObject new]
   fun:__CFDictionaryCreateGeneric
   fun:_CFStringGetUserDefaultEncoding
   fun:_ZN16ImageLoaderMachO11doImageInitERKN11ImageLoader11LinkContextE
   fun:_ZN16ImageLoaderMachO16doInitializationERKN11ImageLoader11LinkContextE
   fun:_ZN11ImageLoader23recursiveInitializationERKNS_11LinkContextEjPKcRNS_21InitializerTimingListERNS_15UninitedUpwardsE
   fun:_ZN11ImageLoader23recursiveInitializationERKNS_11LinkContextEjPKcRNS_21InitializerTimingListERNS_15UninitedUpwardsE
   fun:_ZN11ImageLoader23recursiveInitializationERKNS_11LinkContextEjPKcRNS_21InitializerTimingListERNS_15UninitedUpwardsE
   fun:_ZN11ImageLoader23recursiveInitializationERKNS_11LinkContextEjPKcRNS_21InitializerTimingListERNS_15UninitedUpwardsE
   fun:_ZN11ImageLoader23recursiveInitializationERKNS_11LinkContextEjPKcRNS_21InitializerTimingListERNS_15UninitedUpwardsE
}
{
   <mlx_suppression_rule_240>
   Memcheck:Leak
   match-leak-kinds: reachable
   fun:calloc
   fun:_ZL18cache_collect_freeP8bucket_tj
   fun:+[NSObject new]
   fun:__CFDictionaryCreateGeneric
   fun:_CFStringGetUserDefaultEncoding
   fun:_ZN16ImageLoaderMachO11doImageInitERKN11ImageLoader11LinkContextE
   fun:_ZN16ImageLoaderMachO16doInitializationERKN11ImageLoader11LinkContextE
   fun:_ZN11ImageLoader23recursiveInitializationERKNS_11LinkContextEjPKcRNS_21InitializerTimingListERNS_15UninitedUpwardsE
   fun:_ZN11ImageLoader23recursiveInitializationERKNS_11LinkContextEjPKcRNS_21InitializerTimingListERNS_15UninitedUpwardsE
   fun:_ZN11ImageLoader23recursiveInitializationERKNS_11LinkContextEjPKcRNS_21InitializerTimingListERNS_15UninitedUpwardsE
   fun:_ZN11ImageLoader23recursiveInitializationERKNS_11LinkContextEjPKcRNS_21InitializerTimingListERNS_15UninitedUpwardsE
   fun:_ZN11ImageLoader23recursiveInitializationERKNS_11LinkContextEjPKcRNS_21InitializerTimingListERNS_15UninitedUpwardsE
}
{
   <mlx_suppression_rule_241>
   Memcheck:Leak
   match-leak-kinds: reachable
   fun:calloc
   fun:_ZL18cache_collect_freeP8bucket_tj
   fun:+[NSObject new]
   fun:CFBasicHashCreate
   fun:_CFStringGetUserDefaultEncoding
   fun:_ZN16ImageLoaderMachO11doImageInitERKN11ImageLoader11LinkContextE
   fun:_ZN16ImageLoaderMachO16doInitializationERKN11ImageLoader11LinkContextE
   fun:_ZN11ImageLoader23recursiveInitializationERKNS_11LinkContextEjPKcRNS_21InitializerTimingListERNS_15UninitedUpwardsE
   fun:_ZN11ImageLoader23recursiveInitializationERKNS_11LinkContextEjPKcRNS_21InitializerTimingListERNS_15UninitedUpwardsE
   fun:_ZN11ImageLoader23recursiveInitializationERKNS_11LinkContextEjPKcRNS_21InitializerTimingListERNS_15UninitedUpwardsE
   fun:_ZN11ImageLoader23recursiveInitializationERKNS_11LinkContextEjPKcRNS_21InitializerTimingListERNS_15UninitedUpwardsE
   fun:_ZN11ImageLoader23recursiveInitializationERKNS_11LinkContextEjPKcRNS_21InitializerTimingListERNS_15UninitedUpwardsE
}
{
   <mlx_suppression_rule_242>
   Memcheck:Leak
   match-leak-kinds: reachable
   fun:calloc
   fun:_ZL18cache_collect_freeP8bucket_tj
   fun:+[NSObject new]
   fun:CFBasicHashCreate
   fun:_CFStringGetUserDefaultEncoding
   fun:_ZN16ImageLoaderMachO11doImageInitERKN11ImageLoader11LinkContextE
   fun:_ZN16ImageLoaderMachO16doInitializationERKN11ImageLoader11LinkContextE
   fun:_ZN11ImageLoader23recursiveInitializationERKNS_11LinkContextEjPKcRNS_21InitializerTimingListERNS_15UninitedUpwardsE
   fun:_ZN11ImageLoader23recursiveInitializationERKNS_11LinkContextEjPKcRNS_21InitializerTimingListERNS_15UninitedUpwardsE
   fun:_ZN11ImageLoader23recursiveInitializationERKNS_11LinkContextEjPKcRNS_21InitializerTimingListERNS_15UninitedUpwardsE
   fun:_ZN11ImageLoader23recursiveInitializationERKNS_11LinkContextEjPKcRNS_21InitializerTimingListERNS_15UninitedUpwardsE
   fun:_ZN11ImageLoader23recursiveInitializationERKNS_11LinkContextEjPKcRNS_21InitializerTimingListERNS_15UninitedUpwardsE
}
{
   <mlx_suppression_rule_243>
   Memcheck:Leak
   match-leak-kinds: reachable
   fun:calloc
   fun:_ZL18cache_collect_freeP8bucket_tj
   fun:+[NSObject new]
   fun:CFBasicHashCreate
   fun:_CFStringGetUserDefaultEncoding
   fun:_ZN16ImageLoaderMachO11doImageInitERKN11ImageLoader11LinkContextE
   fun:_ZN16ImageLoaderMachO16doInitializationERKN11ImageLoader11LinkContextE
   fun:_ZN11ImageLoader23recursiveInitializationERKNS_11LinkContextEjPKcRNS_21InitializerTimingListERNS_15UninitedUpwardsE
   fun:_ZN11ImageLoader23recursiveInitializationERKNS_11LinkContextEjPKcRNS_21InitializerTimingListERNS_15UninitedUpwardsE
   fun:_ZN11ImageLoader23recursiveInitializationERKNS_11LinkContextEjPKcRNS_21InitializerTimingListERNS_15UninitedUpwardsE
   fun:_ZN11ImageLoader23recursiveInitializationERKNS_11LinkContextEjPKcRNS_21InitializerTimingListERNS_15UninitedUpwardsE
   fun:_ZN11ImageLoader23recursiveInitializationERKNS_11LinkContextEjPKcRNS_21InitializerTimingListERNS_15UninitedUpwardsE
}
{
   <mlx_suppression_rule_244>
   Memcheck:Leak
   match-leak-kinds: reachable
   fun:calloc
   fun:_ZL18cache_collect_freeP8bucket_tj
   fun:+[NSObject new]
   fun:CFBasicHashCreate
   fun:_CFStringGetUserDefaultEncoding
   fun:_ZN16ImageLoaderMachO11doImageInitERKN11ImageLoader11LinkContextE
   fun:_ZN16ImageLoaderMachO16doInitializationERKN11ImageLoader11LinkContextE
   fun:_ZN11ImageLoader23recursiveInitializationERKNS_11LinkContextEjPKcRNS_21InitializerTimingListERNS_15UninitedUpwardsE
   fun:_ZN11ImageLoader23recursiveInitializationERKNS_11LinkContextEjPKcRNS_21InitializerTimingListERNS_15UninitedUpwardsE
   fun:_ZN11ImageLoader23recursiveInitializationERKNS_11LinkContextEjPKcRNS_21InitializerTimingListERNS_15UninitedUpwardsE
   fun:_ZN11ImageLoader23recursiveInitializationERKNS_11LinkContextEjPKcRNS_21InitializerTimingListERNS_15UninitedUpwardsE
   fun:_ZN11ImageLoader23recursiveInitializationERKNS_11LinkContextEjPKcRNS_21InitializerTimingListERNS_15UninitedUpwardsE
}
{
   <mlx_suppression_rule_245>
   Memcheck:Leak
   match-leak-kinds: possible
   fun:malloc
   fun:_ZL24realizeClassWithoutSwiftP10objc_classS0_
   fun:_ZL32adjustCustomFlagsForMethodChangeP10objc_classP8method_t
   fun:property_copyAttributeValue
   fun:_ZL10free_classP10objc_class
   fun:objc_msgLookup
   fun:_ZN4dyldL12notifySingleE17dyld_image_statesPK11ImageLoaderPNS1_21InitializerTimingListE
   fun:_ZN11ImageLoader23recursiveInitializationERKNS_11LinkContextEjPKcRNS_21InitializerTimingListERNS_15UninitedUpwardsE
   fun:_ZN11ImageLoader19processInitializersERKNS_11LinkContextEjRNS_21InitializerTimingListERNS_15UninitedUpwardsE
   fun:_ZN11ImageLoader19processInitializersERKNS_11LinkContextEjRNS_21InitializerTimingListERNS_15UninitedUpwardsE
   fun:_ZN11ImageLoader15runInitializersERKNS_11LinkContextERNS_21InitializerTimingListE
   fun:_ZN4dyld24initializeMainExecutableEv
}
{
   <mlx_suppression_rule_246>
   Memcheck:Leak
   match-leak-kinds: indirect
   fun:malloc
   fun:_objc_flush_caches
   fun:_objc_rootReleaseWasZero
   fun:_ZN10objc_class36setInstancesRequireRawIsaRecursivelyEb
   fun:_ZN10objc_class11mangledNameEv
   fun:_ZNK8objc_opt17objc_stringhash_t8getIndexEPKc
   fun:unmap_image
   fun:_ZN4dyldL18notifyBatchPartialE17dyld_image_statesbPFPKcS0_jPK15dyld_image_infoEbb
   fun:_ZN4dyld21registerObjCNotifiersEPFvjPKPKcPKPK11mach_headerEPFvS1_S6_ESC_
   fun:_dyld_objc_notify_register
   fun:map_images_nolock
   fun:_os_object_init
}
{
   <mlx_suppression_rule_247>
   Memcheck:Leak
   match-leak-kinds: reachable
   fun:calloc
   fun:__si_module_static_file_block_invoke
   fun:_dispatch_client_callout
   fun:_dispatch_once_callout
   fun:si_module_static_file
   fun:si_module_with_name
   fun:si_module_config_modules_for_category
   fun:__si_module_static_search_block_invoke
   fun:_dispatch_client_callout
   fun:_dispatch_once_callout
   fun:si_module_static_search
   fun:si_module_with_name
}
{
   <mlx_suppression_rule_248>
   Memcheck:Leak
   match-leak-kinds: possible
   fun:malloc
   fun:_ZL24realizeClassWithoutSwiftP10objc_classS0_
   fun:_ZL32adjustCustomFlagsForMethodChangeP10objc_classP8method_t
   fun:property_copyAttributeValue
   fun:_ZL10free_classP10objc_class
   fun:objc_msgLookup
   fun:_ZN4dyldL12notifySingleE17dyld_image_statesPK11ImageLoaderPNS1_21InitializerTimingListE
   fun:_ZN11ImageLoader23recursiveInitializationERKNS_11LinkContextEjPKcRNS_21InitializerTimingListERNS_15UninitedUpwardsE
   fun:_ZN11ImageLoader19processInitializersERKNS_11LinkContextEjRNS_21InitializerTimingListERNS_15UninitedUpwardsE
   fun:_ZN11ImageLoader19processInitializersERKNS_11LinkContextEjRNS_21InitializerTimingListERNS_15UninitedUpwardsE
   fun:_ZN11ImageLoader15runInitializersERKNS_11LinkContextERNS_21InitializerTimingListE
   fun:_ZN4dyld24initializeMainExecutableEv
}
{
   <mlx_suppression_rule_249>
   Memcheck:Leak
   match-leak-kinds: indirect
   fun:malloc
   fun:_ZL24realizeClassWithoutSwiftP10objc_classS0_
   fun:_ZL32adjustCustomFlagsForMethodChangeP10objc_classP8method_t
   fun:_ZL32adjustCustomFlagsForMethodChangeP10objc_classP8method_t
   fun:_ZL16attachCategoriesP10objc_classPK21locstamped_category_tji
   fun:_ZN10objc_class11mangledNameEv
   fun:_ZN10objc_class11mangledNameEv
   fun:_ZN10objc_class11mangledNameEv
   fun:_ZL16addRemappedClassP10objc_classS0_
   fun:objc_initializeClassPair
   fun:objc_registerClassPair
   fun:__CFStringCreateImmutableFunnel3
}
{
   <mlx_suppression_rule_250>
   Memcheck:Leak
   match-leak-kinds: indirect
   fun:malloc
   fun:_ZL24realizeClassWithoutSwiftP10objc_classS0_
   fun:_ZL32adjustCustomFlagsForMethodChangeP10objc_classP8method_t
   fun:_ZL32adjustCustomFlagsForMethodChangeP10objc_classP8method_t
   fun:_ZL16attachCategoriesP10objc_classPK21locstamped_category_tji
   fun:_ZL16addRemappedClassP10objc_classS0_
   fun:objc_initializeClassPair
   fun:objc_registerClassPair
   fun:__CFStringCreateImmutableFunnel3
   fun:__CFInitialize
   fun:_ZN16ImageLoaderMachO11doImageInitERKN11ImageLoader11LinkContextE
   fun:_ZN16ImageLoaderMachO16doInitializationERKN11ImageLoader11LinkContextE
}
{
   <mlx_suppression_rule_251>
   Memcheck:Leak
   match-leak-kinds: indirect
   fun:malloc
   fun:_ZL24realizeClassWithoutSwiftP10objc_classS0_
   fun:_ZL32adjustCustomFlagsForMethodChangeP10objc_classP8method_t
   fun:_ZL32adjustCustomFlagsForMethodChangeP10objc_classP8method_t
   fun:_ZL16attachCategoriesP10objc_classPK21locstamped_category_tji
   fun:_ZN10objc_class11mangledNameEv
   fun:_ZN10objc_class11mangledNameEv
   fun:_ZL16addRemappedClassP10objc_classS0_
   fun:objc_initializeClassPair
   fun:_NSToDoAtProcessStart
   fun:_NSInitializePlatform
   fun:objc_msgLookup_fpret
}
{
   <mlx_suppression_rule_252>
   Memcheck:Leak
   match-leak-kinds: indirect
   fun:malloc_zone_calloc
   fun:-[__NSPlaceholderArray initWithObjects:count:]
   fun:__CFStringCreateImmutableFunnel3
   fun:__CFStringCreateImmutableFunnel3
   fun:_CFLibraryVersionCompare
   fun:_ZN16ImageLoaderMachO11doImageInitERKN11ImageLoader11LinkContextE
   fun:_ZN16ImageLoaderMachO16doInitializationERKN11ImageLoader11LinkContextE
   fun:_ZN11ImageLoader23recursiveInitializationERKNS_11LinkContextEjPKcRNS_21InitializerTimingListERNS_15UninitedUpwardsE
   fun:_ZN11ImageLoader23recursiveInitializationERKNS_11LinkContextEjPKcRNS_21InitializerTimingListERNS_15UninitedUpwardsE
   fun:_ZN11ImageLoader23recursiveInitializationERKNS_11LinkContextEjPKcRNS_21InitializerTimingListERNS_15UninitedUpwardsE
   fun:_ZN11ImageLoader23recursiveInitializationERKNS_11LinkContextEjPKcRNS_21InitializerTimingListERNS_15UninitedUpwardsE
   fun:_ZN11ImageLoader23recursiveInitializationERKNS_11LinkContextEjPKcRNS_21InitializerTimingListERNS_15UninitedUpwardsE
}
{
   <mlx_suppression_rule_253>
   Memcheck:Leak
   match-leak-kinds: definite
   fun:calloc
   fun:_ZN4objc8DenseMapIP10objc_classS2_NS_17DenseMapValueInfoIS2_EENS_12DenseMapInfoIS2_EENS_6detail12DenseMapPairIS2_S2_EEE4growEj
   fun:_ZN10objc_class11mangledNameEv
   fun:_ZL16addRemappedClassP10objc_classS0_
   fun:objc_initializeClassPair
   fun:objc_registerClassPair
   fun:__CFStringCreateImmutableFunnel3
   fun:__CFInitialize
   fun:_ZN16ImageLoaderMachO11doImageInitERKN11ImageLoader11LinkContextE
   fun:_ZN16ImageLoaderMachO16doInitializationERKN11ImageLoader11LinkContextE
   fun:_ZN11ImageLoader23recursiveInitializationERKNS_11LinkContextEjPKcRNS_21InitializerTimingListERNS_15UninitedUpwardsE
   fun:_ZN11ImageLoader23recursiveInitializationERKNS_11LinkContextEjPKcRNS_21InitializerTimingListERNS_15UninitedUpwardsE
}
{
   <mlx_suppression_rule_254>
   Memcheck:Leak
   match-leak-kinds: definite
   fun:calloc
   fun:_ZN4objc8DenseMapIP10objc_classS2_NS_17DenseMapValueInfoIS2_EENS_12DenseMapInfoIS2_EENS_6detail12DenseMapPairIS2_S2_EEE4growEj
   fun:_ZN10objc_class11mangledNameEv
   fun:_ZN10objc_class11mangledNameEv
   fun:_ZL16addRemappedClassP10objc_classS0_
   fun:objc_initializeClassPair
   fun:objc_registerClassPair
   fun:__CFStringCreateImmutableFunnel3
   fun:__CFInitialize
   fun:_ZN16ImageLoaderMachO11doImageInitERKN11ImageLoader11LinkContextE
   fun:_ZN16ImageLoaderMachO16doInitializationERKN11ImageLoader11LinkContextE
   fun:_ZN11ImageLoader23recursiveInitializationERKNS_11LinkContextEjPKcRNS_21InitializerTimingListERNS_15UninitedUpwardsE
}
{
   <mlx_suppression_rule_255>
   Memcheck:Leak
   match-leak-kinds: definite
   fun:calloc
   fun:_ZN4objc8DenseMapIP10objc_classS2_NS_17DenseMapValueInfoIS2_EENS_12DenseMapInfoIS2_EENS_6detail12DenseMapPairIS2_S2_EEE4growEj
   fun:_ZN10objc_class11mangledNameEv
   fun:_ZL16addRemappedClassP10objc_classS0_
   fun:objc_initializeClassPair
   fun:objc_registerClassPair
   fun:__CFStringCreateImmutableFunnel3
   fun:__CFInitializeLinkCheck
   fun:_ZN16ImageLoaderMachO11doImageInitERKN11ImageLoader11LinkContextE
   fun:_ZN16ImageLoaderMachO16doInitializationERKN11ImageLoader11LinkContextE
   fun:_ZN11ImageLoader23recursiveInitializationERKNS_11LinkContextEjPKcRNS_21InitializerTimingListERNS_15UninitedUpwardsE
   fun:_ZN11ImageLoader23recursiveInitializationERKNS_11LinkContextEjPKcRNS_21InitializerTimingListERNS_15UninitedUpwardsE
}
{
   <mlx_suppression_rule_256>
   Memcheck:Leak
   match-leak-kinds: definite
   fun:calloc
   fun:_ZN4objc8DenseMapIP10objc_classS2_NS_17DenseMapValueInfoIS2_EENS_12DenseMapInfoIS2_EENS_6detail12DenseMapPairIS2_S2_EEE4growEj
   fun:_ZN10objc_class11mangledNameEv
   fun:_ZN10objc_class11mangledNameEv
   fun:_ZL16addRemappedClassP10objc_classS0_
   fun:objc_initializeClassPair
   fun:objc_registerClassPair
   fun:__CFStringCreateImmutableFunnel3
   fun:__CFInitializeLinkCheck
   fun:_ZN16ImageLoaderMachO11doImageInitERKN11ImageLoader11LinkContextE
   fun:_ZN16ImageLoaderMachO16doInitializationERKN11ImageLoader11LinkContextE
   fun:_ZN11ImageLoader23recursiveInitializationERKNS_11LinkContextEjPKcRNS_21InitializerTimingListERNS_15UninitedUpwardsE
}
{
   <mlx_suppression_rule_257>
   Memcheck:Leak
   match-leak-kinds: definite
   fun:calloc
   fun:_ZN4objc8DenseMapIP10objc_classS2_NS_17DenseMapValueInfoIS2_EENS_12DenseMapInfoIS2_EENS_6detail12DenseMapPairIS2_S2_EEE4growEj
   fun:_ZN10objc_class11mangledNameEv
   fun:_ZN10objc_class11mangledNameEv
   fun:_ZN10objc_class11mangledNameEv
   fun:_ZL16addRemappedClassP10objc_classS0_
   fun:objc_initializeClassPair
   fun:objc_registerClassPair
   fun:__CFStringCreateImmutableFunnel3
   fun:__CFInitializeLinkCheck
   fun:_ZN16ImageLoaderMachO11doImageInitERKN11ImageLoader11LinkContextE
   fun:_ZN16ImageLoaderMachO16doInitializationERKN11ImageLoader11LinkContextE
}
{
   <mlx_suppression_rule_258>
   Memcheck:Leak
   match-leak-kinds: definite
   fun:calloc
   fun:_ZN4objc8DenseMapIP10objc_classS2_NS_17DenseMapValueInfoIS2_EENS_12DenseMapInfoIS2_EENS_6detail12DenseMapPairIS2_S2_EEE4growEj
   fun:_ZN10objc_class11mangledNameEv
   fun:_ZN10objc_class11mangledNameEv
   fun:_ZL16addRemappedClassP10objc_classS0_
   fun:objc_initializeClassPair
   fun:objc_registerClassPair
   fun:__CFStringCreateImmutableFunnel3
   fun:__CFInitializeLinkCheck
   fun:_ZN16ImageLoaderMachO11doImageInitERKN11ImageLoader11LinkContextE
   fun:_ZN16ImageLoaderMachO16doInitializationERKN11ImageLoader11LinkContextE
   fun:_ZN11ImageLoader23recursiveInitializationERKNS_11LinkContextEjPKcRNS_21InitializerTimingListERNS_15UninitedUpwardsE
}
{
   <mlx_suppression_rule_259>
   Memcheck:Leak
   match-leak-kinds: definite
   fun:calloc
   fun:_ZN4objc8DenseMapIP10objc_classS2_NS_17DenseMapValueInfoIS2_EENS_12DenseMapInfoIS2_EENS_6detail12DenseMapPairIS2_S2_EEE4growEj
   fun:_ZN10objc_class11mangledNameEv
   fun:_ZL16addRemappedClassP10objc_classS0_
   fun:objc_initializeClassPair
   fun:objc_registerClassPair
   fun:__CFStringCreateImmutableFunnel3
   fun:__CFInitializeLinkCheck
   fun:_ZN16ImageLoaderMachO11doImageInitERKN11ImageLoader11LinkContextE
   fun:_ZN16ImageLoaderMachO16doInitializationERKN11ImageLoader11LinkContextE
   fun:_ZN11ImageLoader23recursiveInitializationERKNS_11LinkContextEjPKcRNS_21InitializerTimingListERNS_15UninitedUpwardsE
   fun:_ZN11ImageLoader23recursiveInitializationERKNS_11LinkContextEjPKcRNS_21InitializerTimingListERNS_15UninitedUpwardsE
}
{
   <mlx_suppression_rule_260>
   Memcheck:Leak
   match-leak-kinds: definite
   fun:calloc
   fun:_ZN4objc8DenseMapIP10objc_classS2_NS_17DenseMapValueInfoIS2_EENS_12DenseMapInfoIS2_EENS_6detail12DenseMapPairIS2_S2_EEE4growEj
   fun:_ZN10objc_class11mangledNameEv
   fun:_ZN10objc_class11mangledNameEv
   fun:_ZL16addRemappedClassP10objc_classS0_
   fun:objc_initializeClassPair
   fun:objc_registerClassPair
   fun:__CFStringCreateImmutableFunnel3
   fun:__CFInitializeLinkCheck
   fun:_ZN16ImageLoaderMachO11doImageInitERKN11ImageLoader11LinkContextE
   fun:_ZN16ImageLoaderMachO16doInitializationERKN11ImageLoader11LinkContextE
   fun:_ZN11ImageLoader23recursiveInitializationERKNS_11LinkContextEjPKcRNS_21InitializerTimingListERNS_15UninitedUpwardsE
}
{
   <mlx_suppression_rule_261>
   Memcheck:Leak
   match-leak-kinds: definite
   fun:calloc
   fun:_ZN4objc8DenseMapIP10objc_classS2_NS_17DenseMapValueInfoIS2_EENS_12DenseMapInfoIS2_EENS_6detail12DenseMapPairIS2_S2_EEE4growEj
   fun:_ZL16addRemappedClassP10objc_classS0_
   fun:objc_initializeClassPair
   fun:_NSToDoAtProcessStart
   fun:_NSInitializePlatform
   fun:objc_msgLookup_fpret
   fun:_ZN4dyldL12notifySingleE17dyld_image_statesPK11ImageLoaderPNS1_21InitializerTimingListE
   fun:_ZN11ImageLoader23recursiveInitializationERKNS_11LinkContextEjPKcRNS_21InitializerTimingListERNS_15UninitedUpwardsE
   fun:_ZN11ImageLoader23recursiveInitializationERKNS_11LinkContextEjPKcRNS_21InitializerTimingListERNS_15UninitedUpwardsE
   fun:_ZN11ImageLoader23recursiveInitializationERKNS_11LinkContextEjPKcRNS_21InitializerTimingListERNS_15UninitedUpwardsE
   fun:_ZN11ImageLoader23recursiveInitializationERKNS_11LinkContextEjPKcRNS_21InitializerTimingListERNS_15UninitedUpwardsE
}
{
   <mlx_suppression_rule_262>
   Memcheck:Leak
   match-leak-kinds: definite
   fun:calloc
   fun:_ZN4objc8DenseMapIP10objc_classS2_NS_17DenseMapValueInfoIS2_EENS_12DenseMapInfoIS2_EENS_6detail12DenseMapPairIS2_S2_EEE4growEj
   fun:_ZL16addRemappedClassP10objc_classS0_
   fun:objc_initializeClassPair
   fun:_NSToDoAtProcessStart
   fun:_NSInitializePlatform
   fun:objc_msgLookup_fpret
   fun:_ZN4dyldL12notifySingleE17dyld_image_statesPK11ImageLoaderPNS1_21InitializerTimingListE
   fun:_ZN11ImageLoader23recursiveInitializationERKNS_11LinkContextEjPKcRNS_21InitializerTimingListERNS_15UninitedUpwardsE
   fun:_ZN11ImageLoader23recursiveInitializationERKNS_11LinkContextEjPKcRNS_21InitializerTimingListERNS_15UninitedUpwardsE
   fun:_ZN11ImageLoader23recursiveInitializationERKNS_11LinkContextEjPKcRNS_21InitializerTimingListERNS_15UninitedUpwardsE
   fun:_ZN11ImageLoader23recursiveInitializationERKNS_11LinkContextEjPKcRNS_21InitializerTimingListERNS_15UninitedUpwardsE
}
{
   <mlx_suppression_rule_263>
   Memcheck:Leak
   match-leak-kinds: definite
   fun:calloc
   fun:_ZN4objc8DenseMapIP10objc_classS2_NS_17DenseMapValueInfoIS2_EENS_12DenseMapInfoIS2_EENS_6detail12DenseMapPairIS2_S2_EEE4growEj
   fun:_ZL16addRemappedClassP10objc_classS0_
   fun:objc_initializeClassPair
   fun:_NSToDoAtProcessStart
   fun:_NSInitializePlatform
   fun:objc_msgLookup_fpret
   fun:_ZN4dyldL12notifySingleE17dyld_image_statesPK11ImageLoaderPNS1_21InitializerTimingListE
   fun:_ZN11ImageLoader23recursiveInitializationERKNS_11LinkContextEjPKcRNS_21InitializerTimingListERNS_15UninitedUpwardsE
   fun:_ZN11ImageLoader23recursiveInitializationERKNS_11LinkContextEjPKcRNS_21InitializerTimingListERNS_15UninitedUpwardsE
   fun:_ZN11ImageLoader23recursiveInitializationERKNS_11LinkContextEjPKcRNS_21InitializerTimingListERNS_15UninitedUpwardsE
   fun:_ZN11ImageLoader23recursiveInitializationERKNS_11LinkContextEjPKcRNS_21InitializerTimingListERNS_15UninitedUpwardsE
}
{
   <mlx_suppression_rule_264>
   Memcheck:Leak
   match-leak-kinds: reachable
   fun:calloc
   fun:objc_msgSend_stret
   fun:_os_object_alloc_realized
   fun:_xpc_pipe_create
   fun:xpc_pipe_create
   fun:_od_xpc_pipe
   fun:_od_running
   fun:ds_user_byuid
   fun:si_user_byuid
   fun:search_item_bynumber
   fun:search_user_byuid
   fun:si_user_byuid
}
{
   <mlx_suppression_rule_265>
   Memcheck:Leak
   match-leak-kinds: indirect
   fun:malloc
   fun:_ZL24realizeClassWithoutSwiftP10objc_classS0_
   fun:_ZL32adjustCustomFlagsForMethodChangeP10objc_classP8method_t
   fun:_ZL32adjustCustomFlagsForMethodChangeP10objc_classP8method_t
   fun:_ZL16attachCategoriesP10objc_classPK21locstamped_category_tji
   fun:_ZN10objc_class11mangledNameEv
   fun:_ZN10objc_class11mangledNameEv
   fun:_ZL16addRemappedClassP10objc_classS0_
   fun:objc_initializeClassPair
   fun:objc_registerClassPair
   fun:__CFStringCreateImmutableFunnel3
   fun:__CFInitialize
}
{
   <mlx_suppression_rule_266>
   Memcheck:Leak
   match-leak-kinds: indirect
   fun:malloc
   fun:_ZL24realizeClassWithoutSwiftP10objc_classS0_
   fun:_ZL32adjustCustomFlagsForMethodChangeP10objc_classP8method_t
   fun:_ZL32adjustCustomFlagsForMethodChangeP10objc_classP8method_t
   fun:_ZL16attachCategoriesP10objc_classPK21locstamped_category_tji
   fun:_ZN10objc_class11mangledNameEv
   fun:_ZL16addRemappedClassP10objc_classS0_
   fun:objc_initializeClassPair
   fun:_NSToDoAtProcessStart
   fun:_NSInitializePlatform
   fun:objc_msgLookup_fpret
   fun:_ZN4dyldL12notifySingleE17dyld_image_statesPK11ImageLoaderPNS1_21InitializerTimingListE
}
{
   <mlx_suppression_rule_267>
   Memcheck:Leak
   match-leak-kinds: indirect
   fun:calloc
   fun:_ZL33realizeClassMaybeSwiftMaybeRelockP10objc_classR8mutex_ttILb0EEb
   fun:_ZL32adjustCustomFlagsForMethodChangeP10objc_classP8method_t
   fun:_ZL32adjustCustomFlagsForMethodChangeP10objc_classP8method_t
   fun:_ZL16attachCategoriesP10objc_classPK21locstamped_category_tji
   fun:_ZN10objc_class11mangledNameEv
   fun:_ZN10objc_class11mangledNameEv
   fun:_ZN10objc_class11mangledNameEv
   fun:_ZL16addRemappedClassP10objc_classS0_
   fun:objc_initializeClassPair
   fun:objc_registerClassPair
   fun:__CFStringCreateImmutableFunnel3
}
{
   <mlx_suppression_rule_268>
   Memcheck:Leak
   match-leak-kinds: indirect
   fun:malloc
   fun:_ZL24realizeClassWithoutSwiftP10objc_classS0_
   fun:_ZL32adjustCustomFlagsForMethodChangeP10objc_classP8method_t
   fun:property_copyAttributeValue
   fun:_ZL10free_classP10objc_class
   fun:objc_msgLookup
   fun:_ZN4dyldL12notifySingleE17dyld_image_statesPK11ImageLoaderPNS1_21InitializerTimingListE
   fun:_ZN11ImageLoader23recursiveInitializationERKNS_11LinkContextEjPKcRNS_21InitializerTimingListERNS_15UninitedUpwardsE
   fun:_ZN11ImageLoader19processInitializersERKNS_11LinkContextEjRNS_21InitializerTimingListERNS_15UninitedUpwardsE
   fun:_ZN11ImageLoader19processInitializersERKNS_11LinkContextEjRNS_21InitializerTimingListERNS_15UninitedUpwardsE
   fun:_ZN11ImageLoader15runInitializersERKNS_11LinkContextERNS_21InitializerTimingListE
   fun:_ZN4dyld24initializeMainExecutableEv
}
{
   <mlx_suppression_rule_269>
   Memcheck:Leak
   match-leak-kinds: definite
   fun:calloc
   fun:_ZN4objc8DenseMapIP10objc_classS2_NS_17DenseMapValueInfoIS2_EENS_12DenseMapInfoIS2_EENS_6detail12DenseMapPairIS2_S2_EEE4growEj
   fun:_ZN10objc_class11mangledNameEv
   fun:_ZL16addRemappedClassP10objc_classS0_
   fun:objc_initializeClassPair
   fun:objc_registerClassPair
   fun:__CFStringCreateImmutableFunnel3
   fun:__CFInitialize
   fun:_ZN16ImageLoaderMachO11doImageInitERKN11ImageLoader11LinkContextE
   fun:_ZN16ImageLoaderMachO16doInitializationERKN11ImageLoader11LinkContextE
   fun:_ZN11ImageLoader23recursiveInitializationERKNS_11LinkContextEjPKcRNS_21InitializerTimingListERNS_15UninitedUpwardsE
   fun:_ZN11ImageLoader23recursiveInitializationERKNS_11LinkContextEjPKcRNS_21InitializerTimingListERNS_15UninitedUpwardsE
}
{
   <mlx_suppression_rule_270>
   Memcheck:Leak
   match-leak-kinds: definite
   fun:calloc
   fun:_ZN4objc8DenseMapIP10objc_classS2_NS_17DenseMapValueInfoIS2_EENS_12DenseMapInfoIS2_EENS_6detail12DenseMapPairIS2_S2_EEE4growEj
   fun:_ZN10objc_class11mangledNameEv
   fun:_ZL16addRemappedClassP10objc_classS0_
   fun:objc_initializeClassPair
   fun:objc_registerClassPair
   fun:__CFStringCreateImmutableFunnel3
   fun:__CFInitialize
   fun:_ZN16ImageLoaderMachO11doImageInitERKN11ImageLoader11LinkContextE
   fun:_ZN16ImageLoaderMachO16doInitializationERKN11ImageLoader11LinkContextE
   fun:_ZN11ImageLoader23recursiveInitializationERKNS_11LinkContextEjPKcRNS_21InitializerTimingListERNS_15UninitedUpwardsE
   fun:_ZN11ImageLoader23recursiveInitializationERKNS_11LinkContextEjPKcRNS_21InitializerTimingListERNS_15UninitedUpwardsE
}
{
   <mlx_suppression_rule_271>
   Memcheck:Leak
   match-leak-kinds: definite
   fun:calloc
   fun:_ZN4objc8DenseMapIP10objc_classS2_NS_17DenseMapValueInfoIS2_EENS_12DenseMapInfoIS2_EENS_6detail12DenseMapPairIS2_S2_EEE4growEj
   fun:_ZN10objc_class11mangledNameEv
   fun:_ZN10objc_class11mangledNameEv
   fun:_ZL16addRemappedClassP10objc_classS0_
   fun:objc_initializeClassPair
   fun:objc_registerClassPair
   fun:__CFStringCreateImmutableFunnel3
   fun:__CFInitialize
   fun:_ZN16ImageLoaderMachO11doImageInitERKN11ImageLoader11LinkContextE
   fun:_ZN16ImageLoaderMachO16doInitializationERKN11ImageLoader11LinkContextE
   fun:_ZN11ImageLoader23recursiveInitializationERKNS_11LinkContextEjPKcRNS_21InitializerTimingListERNS_15UninitedUpwardsE
}
{
   <mlx_suppression_rule_272>
   Memcheck:Leak
   match-leak-kinds: definite
   fun:calloc
   fun:_ZN4objc8DenseMapIP10objc_classS2_NS_17DenseMapValueInfoIS2_EENS_12DenseMapInfoIS2_EENS_6detail12DenseMapPairIS2_S2_EEE4growEj
   fun:_ZN10objc_class11mangledNameEv
   fun:_ZL16addRemappedClassP10objc_classS0_
   fun:objc_initializeClassPair
   fun:_NSToDoAtProcessStart
   fun:_NSInitializePlatform
   fun:objc_msgLookup_fpret
   fun:_ZN4dyldL12notifySingleE17dyld_image_statesPK11ImageLoaderPNS1_21InitializerTimingListE
   fun:_ZN11ImageLoader23recursiveInitializationERKNS_11LinkContextEjPKcRNS_21InitializerTimingListERNS_15UninitedUpwardsE
   fun:_ZN11ImageLoader23recursiveInitializationERKNS_11LinkContextEjPKcRNS_21InitializerTimingListERNS_15UninitedUpwardsE
   fun:_ZN11ImageLoader23recursiveInitializationERKNS_11LinkContextEjPKcRNS_21InitializerTimingListERNS_15UninitedUpwardsE
}
{
   <mlx_suppression_rule_273>
   Memcheck:Leak
   match-leak-kinds: definite
   fun:calloc
   fun:_ZN4objc8DenseMapIP10objc_classS2_NS_17DenseMapValueInfoIS2_EENS_12DenseMapInfoIS2_EENS_6detail12DenseMapPairIS2_S2_EEE4growEj
   fun:_ZN10objc_class11mangledNameEv
   fun:_ZL16addRemappedClassP10objc_classS0_
   fun:objc_initializeClassPair
   fun:_NSToDoAtProcessStart
   fun:_NSInitializePlatform
   fun:objc_msgLookup_fpret
   fun:_ZN4dyldL12notifySingleE17dyld_image_statesPK11ImageLoaderPNS1_21InitializerTimingListE
   fun:_ZN11ImageLoader23recursiveInitializationERKNS_11LinkContextEjPKcRNS_21InitializerTimingListERNS_15UninitedUpwardsE
   fun:_ZN11ImageLoader23recursiveInitializationERKNS_11LinkContextEjPKcRNS_21InitializerTimingListERNS_15UninitedUpwardsE
   fun:_ZN11ImageLoader23recursiveInitializationERKNS_11LinkContextEjPKcRNS_21InitializerTimingListERNS_15UninitedUpwardsE
}
{
   <mlx_suppression_rule_273>
   Memcheck:Leak
   match-leak-kinds: possible
   fun:calloc
   fun:_notify_fork_child
   fun:notify_register_check
   fun:__si_module_static_ds_block_invoke
   fun:_dispatch_client_callout
   fun:_dispatch_once_callout
   fun:si_module_static_ds
   fun:si_module_with_name
   fun:si_module_config_modules_for_category
   fun:__si_module_static_search_block_invoke
   fun:_dispatch_client_callout
   fun:_dispatch_once_callout
}
{
   <mlx_suppression_rule_275>
   Memcheck:Leak
   match-leak-kinds: possible
   fun:calloc
   fun:_notify_fork_child
   fun:notify_register_check
   fun:__si_module_static_ds_block_invoke
   fun:_dispatch_client_callout
   fun:_dispatch_once_callout
   fun:si_module_static_ds
   fun:si_module_with_name
   fun:si_module_config_modules_for_category
   fun:__si_module_static_search_block_invoke
   fun:_dispatch_client_callout
   fun:_dispatch_once_callout
}
{
   <mlx_suppression_rule_276>
   Memcheck:Leak
   match-leak-kinds: possible
   fun:calloc
   fun:_notify_fork_child
   fun:notify_register_check
   fun:__si_module_static_ds_block_invoke
   fun:_dispatch_client_callout
   fun:_dispatch_once_callout
   fun:si_module_static_ds
   fun:si_module_with_name
   fun:si_module_config_modules_for_category
   fun:__si_module_static_search_block_invoke
   fun:_dispatch_client_callout
   fun:_dispatch_once_callout
}
{
   <mlx_suppression_rule_277>
   Memcheck:Leak
   match-leak-kinds: possible
   fun:calloc
   fun:_notify_fork_child
   fun:notify_register_check
   fun:__si_module_static_ds_block_invoke
   fun:_dispatch_client_callout
   fun:_dispatch_once_callout
   fun:si_module_static_ds
   fun:si_module_with_name
   fun:si_module_config_modules_for_category
   fun:__si_module_static_search_block_invoke
   fun:_dispatch_client_callout
   fun:_dispatch_once_callout
}
{
   <mlx_suppression_rule_278>
   Memcheck:Leak
   match-leak-kinds: possible
   fun:calloc
   fun:_notify_fork_child
   fun:notify_register_check
   fun:_os_trace_prefs_and_mode_refresh_slow
   fun:_os_activity_create_addr
   fun:ds_user_byuid
   fun:si_user_byuid
   fun:search_item_bynumber
   fun:search_user_byuid
   fun:si_user_byuid
   fun:getpwuid_r
   fun:__CFgetenv
}
{
   <mlx_suppression_rule_279>
   Memcheck:Leak
   match-leak-kinds: indirect
   fun:malloc
   fun:_ZL24realizeClassWithoutSwiftP10objc_classS0_
   fun:_ZL32adjustCustomFlagsForMethodChangeP10objc_classP8method_t
   fun:_ZL32adjustCustomFlagsForMethodChangeP10objc_classP8method_t
   fun:_ZL16attachCategoriesP10objc_classPK21locstamped_category_tji
   fun:_ZN10objc_class11mangledNameEv
   fun:_ZL16addRemappedClassP10objc_classS0_
   fun:objc_initializeClassPair
   fun:_NSToDoAtProcessStart
   fun:_NSInitializePlatform
   fun:objc_msgLookup_fpret
   fun:_ZN4dyldL12notifySingleE17dyld_image_statesPK11ImageLoaderPNS1_21InitializerTimingListE
}
{
   <mlx_suppression_rule_280>
   Memcheck:Leak
   match-leak-kinds: definite
   fun:calloc
   fun:_ZN4objc8DenseMapIP10objc_classS2_NS_17DenseMapValueInfoIS2_EENS_12DenseMapInfoIS2_EENS_6detail12DenseMapPairIS2_S2_EEE4growEj
   fun:_ZN10objc_class11mangledNameEv
   fun:_ZN10objc_class11mangledNameEv
   fun:_ZL16addRemappedClassP10objc_classS0_
   fun:objc_initializeClassPair
   fun:objc_registerClassPair
   fun:__CFStringCreateImmutableFunnel3
   fun:__CFInitializeLinkCheck
   fun:_ZN16ImageLoaderMachO11doImageInitERKN11ImageLoader11LinkContextE
   fun:_ZN16ImageLoaderMachO16doInitializationERKN11ImageLoader11LinkContextE
   fun:_ZN11ImageLoader23recursiveInitializationERKNS_11LinkContextEjPKcRNS_21InitializerTimingListERNS_15UninitedUpwardsE
}
{
   <mlx_suppression_rule_281>
   Memcheck:Leak
   match-leak-kinds: definite
   fun:calloc
   fun:_ZN4objc8DenseMapIP10objc_classS2_NS_17DenseMapValueInfoIS2_EENS_12DenseMapInfoIS2_EENS_6detail12DenseMapPairIS2_S2_EEE4growEj
   fun:_ZN10objc_class11mangledNameEv
   fun:_ZL16addRemappedClassP10objc_classS0_
   fun:objc_initializeClassPair
   fun:objc_registerClassPair
   fun:__CFStringCreateImmutableFunnel3
   fun:__CFInitializeLinkCheck
   fun:_ZN16ImageLoaderMachO11doImageInitERKN11ImageLoader11LinkContextE
   fun:_ZN16ImageLoaderMachO16doInitializationERKN11ImageLoader11LinkContextE
   fun:_ZN11ImageLoader23recursiveInitializationERKNS_11LinkContextEjPKcRNS_21InitializerTimingListERNS_15UninitedUpwardsE
   fun:_ZN11ImageLoader23recursiveInitializationERKNS_11LinkContextEjPKcRNS_21InitializerTimingListERNS_15UninitedUpwardsE
}
{
   <mlx_suppression_rule_282>
   Memcheck:Leak
   match-leak-kinds: definite
   fun:calloc
   fun:objc_msgSend_stret
   fun:CFStringEncodingGetConverter
   fun:_CFLocaleCopyCurrentGuts
   fun:_CFLibraryVersionCompare
   fun:_ZN16ImageLoaderMachO11doImageInitERKN11ImageLoader11LinkContextE
   fun:_ZN16ImageLoaderMachO16doInitializationERKN11ImageLoader11LinkContextE
   fun:_ZN11ImageLoader23recursiveInitializationERKNS_11LinkContextEjPKcRNS_21InitializerTimingListERNS_15UninitedUpwardsE
   fun:_ZN11ImageLoader23recursiveInitializationERKNS_11LinkContextEjPKcRNS_21InitializerTimingListERNS_15UninitedUpwardsE
   fun:_ZN11ImageLoader23recursiveInitializationERKNS_11LinkContextEjPKcRNS_21InitializerTimingListERNS_15UninitedUpwardsE
   fun:_ZN11ImageLoader23recursiveInitializationERKNS_11LinkContextEjPKcRNS_21InitializerTimingListERNS_15UninitedUpwardsE
   fun:_ZN11ImageLoader23recursiveInitializationERKNS_11LinkContextEjPKcRNS_21InitializerTimingListERNS_15UninitedUpwardsE
}
{
   <mlx_suppression_rule_283>
   Memcheck:Leak
   match-leak-kinds: definite
   fun:calloc
   fun:_ZN4objc8DenseMapIP10objc_classS2_NS_17DenseMapValueInfoIS2_EENS_12DenseMapInfoIS2_EENS_6detail12DenseMapPairIS2_S2_EEE4growEj
   fun:_ZL16addRemappedClassP10objc_classS0_
   fun:objc_initializeClassPair
   fun:_NSToDoAtProcessStart
   fun:_NSInitializePlatform
   fun:objc_msgLookup_fpret
   fun:_ZN4dyldL12notifySingleE17dyld_image_statesPK11ImageLoaderPNS1_21InitializerTimingListE
   fun:_ZN11ImageLoader23recursiveInitializationERKNS_11LinkContextEjPKcRNS_21InitializerTimingListERNS_15UninitedUpwardsE
   fun:_ZN11ImageLoader23recursiveInitializationERKNS_11LinkContextEjPKcRNS_21InitializerTimingListERNS_15UninitedUpwardsE
   fun:_ZN11ImageLoader23recursiveInitializationERKNS_11LinkContextEjPKcRNS_21InitializerTimingListERNS_15UninitedUpwardsE
   fun:_ZN11ImageLoader23recursiveInitializationERKNS_11LinkContextEjPKcRNS_21InitializerTimingListERNS_15UninitedUpwardsE
}
{
   <mlx_suppression_rule_284>
   Memcheck:Leak
   match-leak-kinds: definite
   fun:malloc_zone_calloc
   fun:-[__NSPlaceholderArray initWithObjects:count:]
   fun:__CFBasicHashGetPtrIndex_block_invoke
   fun:CFBasicHashGetPtrIndex
   fun:CFBasicHashCreate
   fun:____NSThreads_block_invoke
   fun:_dispatch_client_callout
   fun:_dispatch_once_callout
   fun:_NSThreadGet0
   fun:_NSInitializePlatform
   fun:objc_msgLookup_fpret
   fun:_ZN4dyldL12notifySingleE17dyld_image_statesPK11ImageLoaderPNS1_21InitializerTimingListE
}
{
   <mlx_suppression_rule_285>
   Memcheck:Leak
   match-leak-kinds: definite
   fun:calloc
   fun:_ZN4objc8DenseMapIP10objc_classS2_NS_17DenseMapValueInfoIS2_EENS_12DenseMapInfoIS2_EENS_6detail12DenseMapPairIS2_S2_EEE4growEj
   fun:_ZL16addRemappedClassP10objc_classS0_
   fun:objc_initializeClassPair
   fun:_NSToDoAtProcessStart
   fun:_NSInitializePlatform
   fun:objc_msgLookup_fpret
   fun:_ZN4dyldL12notifySingleE17dyld_image_statesPK11ImageLoaderPNS1_21InitializerTimingListE
   fun:_ZN11ImageLoader23recursiveInitializationERKNS_11LinkContextEjPKcRNS_21InitializerTimingListERNS_15UninitedUpwardsE
   fun:_ZN11ImageLoader23recursiveInitializationERKNS_11LinkContextEjPKcRNS_21InitializerTimingListERNS_15UninitedUpwardsE
   fun:_ZN11ImageLoader23recursiveInitializationERKNS_11LinkContextEjPKcRNS_21InitializerTimingListERNS_15UninitedUpwardsE
   fun:_ZN11ImageLoader23recursiveInitializationERKNS_11LinkContextEjPKcRNS_21InitializerTimingListERNS_15UninitedUpwardsE
}
{
   <mlx_suppression_rule_286>
   Memcheck:Leak
   match-leak-kinds: reachable
   fun:calloc
   fun:_ZL13getClass_implPKc
   fun:_ZN11objc_object27sidetable_clearDeallocatingEv
   fun:_ZL19_finishInitializingP10objc_classS0_
   fun:lookUpImpOrForward
   fun:_li_auto_os_release
   fun:ds_user_byuid
   fun:si_user_byuid
   fun:search_item_bynumber
   fun:search_user_byuid
   fun:si_user_byuid
   fun:getpwuid_r
}
{
   <mlx_suppression_rule_287>
   Memcheck:Leak
   match-leak-kinds: reachable
   fun:realloc
   fun:reallocf
   fun:_ZL27protocol_getProperty_nolockP10protocol_tPKcbb
   fun:property_copyAttributeValue
   fun:_ZL10free_classP10objc_class
   fun:objc_msgLookup
   fun:_ZN4dyldL12notifySingleE17dyld_image_statesPK11ImageLoaderPNS1_21InitializerTimingListE
   fun:_ZN11ImageLoader23recursiveInitializationERKNS_11LinkContextEjPKcRNS_21InitializerTimingListERNS_15UninitedUpwardsE
   fun:_ZN11ImageLoader19processInitializersERKNS_11LinkContextEjRNS_21InitializerTimingListERNS_15UninitedUpwardsE
   fun:_ZN11ImageLoader19processInitializersERKNS_11LinkContextEjRNS_21InitializerTimingListERNS_15UninitedUpwardsE
   fun:_ZN11ImageLoader15runInitializersERKNS_11LinkContextERNS_21InitializerTimingListE
   fun:_ZN4dyld24initializeMainExecutableEv
}
{
   <mlx_suppression_rule_288>
   Memcheck:Leak
   match-leak-kinds: reachable
   fun:malloc
   fun:protocol_getProperty
   fun:property_copyAttributeValue
   fun:_ZL10free_classP10objc_class
   fun:objc_msgLookup
   fun:_ZN4dyldL12notifySingleE17dyld_image_statesPK11ImageLoaderPNS1_21InitializerTimingListE
   fun:_ZN11ImageLoader23recursiveInitializationERKNS_11LinkContextEjPKcRNS_21InitializerTimingListERNS_15UninitedUpwardsE
   fun:_ZN11ImageLoader19processInitializersERKNS_11LinkContextEjRNS_21InitializerTimingListERNS_15UninitedUpwardsE
   fun:_ZN11ImageLoader19processInitializersERKNS_11LinkContextEjRNS_21InitializerTimingListERNS_15UninitedUpwardsE
   fun:_ZN11ImageLoader15runInitializersERKNS_11LinkContextERNS_21InitializerTimingListE
   fun:_ZN4dyld24initializeMainExecutableEv
   fun:_ZN4dyld5_mainEPK12macho_headermiPPKcS5_S5_Pm
}
{
   <mlx_suppression_rule_289>
   Memcheck:Leak
   match-leak-kinds: definite
   fun:calloc
   fun:_ZL13getClass_implPKc
   fun:_ZN11objc_object27sidetable_clearDeallocatingEv
   fun:_ZL19_finishInitializingP10objc_classS0_
   fun:lookUpImpOrForward
   fun:weak_register_no_lock
   fun:-[NSThread init]
   fun:____NSThreads_block_invoke
   fun:_dispatch_client_callout
   fun:_dispatch_once_callout
   fun:_NSThreadGet0
   fun:_NSInitializePlatform
}
{
   <mlx_suppression_rule_290>
   Memcheck:Leak
   match-leak-kinds: definite
   fun:calloc
   fun:_ZL13getClass_implPKc
   fun:_ZN11objc_object27sidetable_clearDeallocatingEv
   fun:_ZL19_finishInitializingP10objc_classS0_
   fun:lookUpImpOrForward
   fun:-[NSThread init]
   fun:____NSThreads_block_invoke
   fun:_dispatch_client_callout
   fun:_dispatch_once_callout
   fun:_NSThreadGet0
   fun:_NSInitializePlatform
   fun:objc_msgLookup_fpret
}
{
   <mlx_suppression_rule_291>
   Memcheck:Leak
   match-leak-kinds: definite
   fun:calloc
   fun:_ZN4objc8DenseMapIP10objc_classS2_NS_17DenseMapValueInfoIS2_EENS_12DenseMapInfoIS2_EENS_6detail12DenseMapPairIS2_S2_EEE4growEj
   fun:_ZN10objc_class11mangledNameEv
   fun:_ZL16addRemappedClassP10objc_classS0_
   fun:objc_initializeClassPair
   fun:objc_registerClassPair
   fun:__CFStringCreateImmutableFunnel3
   fun:__CFInitialize
   fun:_ZN16ImageLoaderMachO11doImageInitERKN11ImageLoader11LinkContextE
   fun:_ZN16ImageLoaderMachO16doInitializationERKN11ImageLoader11LinkContextE
   fun:_ZN11ImageLoader23recursiveInitializationERKNS_11LinkContextEjPKcRNS_21InitializerTimingListERNS_15UninitedUpwardsE
   fun:_ZN11ImageLoader23recursiveInitializationERKNS_11LinkContextEjPKcRNS_21InitializerTimingListERNS_15UninitedUpwardsE
}
{
   <mlx_suppression_rule_292>
   Memcheck:Leak
   match-leak-kinds: definite
   fun:calloc
   fun:_ZN4objc8DenseMapIP10objc_classS2_NS_17DenseMapValueInfoIS2_EENS_12DenseMapInfoIS2_EENS_6detail12DenseMapPairIS2_S2_EEE4growEj
   fun:_ZN10objc_class11mangledNameEv
   fun:_ZL16addRemappedClassP10objc_classS0_
   fun:objc_initializeClassPair
   fun:objc_registerClassPair
   fun:__CFStringCreateImmutableFunnel3
   fun:__CFInitializeLinkCheck
   fun:_ZN16ImageLoaderMachO11doImageInitERKN11ImageLoader11LinkContextE
   fun:_ZN16ImageLoaderMachO16doInitializationERKN11ImageLoader11LinkContextE
   fun:_ZN11ImageLoader23recursiveInitializationERKNS_11LinkContextEjPKcRNS_21InitializerTimingListERNS_15UninitedUpwardsE
   fun:_ZN11ImageLoader23recursiveInitializationERKNS_11LinkContextEjPKcRNS_21InitializerTimingListERNS_15UninitedUpwardsE
}
{
   <mlx_suppression_rule_293>
   Memcheck:Leak
   match-leak-kinds: definite
   fun:calloc
   fun:_ZN4objc8DenseMapIP10objc_classS2_NS_17DenseMapValueInfoIS2_EENS_12DenseMapInfoIS2_EENS_6detail12DenseMapPairIS2_S2_EEE4growEj
   fun:_ZN10objc_class11mangledNameEv
   fun:_ZN10objc_class11mangledNameEv
   fun:_ZL16addRemappedClassP10objc_classS0_
   fun:objc_initializeClassPair
   fun:_NSToDoAtProcessStart
   fun:_NSInitializePlatform
   fun:objc_msgLookup_fpret
   fun:_ZN4dyldL12notifySingleE17dyld_image_statesPK11ImageLoaderPNS1_21InitializerTimingListE
   fun:_ZN11ImageLoader23recursiveInitializationERKNS_11LinkContextEjPKcRNS_21InitializerTimingListERNS_15UninitedUpwardsE
   fun:_ZN11ImageLoader23recursiveInitializationERKNS_11LinkContextEjPKcRNS_21InitializerTimingListERNS_15UninitedUpwardsE
}
{
   <mlx_suppression_rule_294>
   Memcheck:Leak
   match-leak-kinds: definite
   fun:calloc
   fun:_ZN4objc8DenseMapIP10objc_classS2_NS_17DenseMapValueInfoIS2_EENS_12DenseMapInfoIS2_EENS_6detail12DenseMapPairIS2_S2_EEE4growEj
   fun:_ZL16addRemappedClassP10objc_classS0_
   fun:objc_initializeClassPair
   fun:_NSToDoAtProcessStart
   fun:_NSInitializePlatform
   fun:objc_msgLookup_fpret
   fun:_ZN4dyldL12notifySingleE17dyld_image_statesPK11ImageLoaderPNS1_21InitializerTimingListE
   fun:_ZN11ImageLoader23recursiveInitializationERKNS_11LinkContextEjPKcRNS_21InitializerTimingListERNS_15UninitedUpwardsE
   fun:_ZN11ImageLoader23recursiveInitializationERKNS_11LinkContextEjPKcRNS_21InitializerTimingListERNS_15UninitedUpwardsE
   fun:_ZN11ImageLoader23recursiveInitializationERKNS_11LinkContextEjPKcRNS_21InitializerTimingListERNS_15UninitedUpwardsE
   fun:_ZN11ImageLoader23recursiveInitializationERKNS_11LinkContextEjPKcRNS_21InitializerTimingListERNS_15UninitedUpwardsE
}
{
   <mlx_suppression_rule_295>
   Memcheck:Leak
   match-leak-kinds: indirect
   fun:malloc
   fun:_objc_flush_caches
   fun:_objc_rootReleaseWasZero
   fun:_ZN10objc_class36setInstancesRequireRawIsaRecursivelyEb
   fun:_ZNK8objc_opt17objc_stringhash_t8getIndexEPKc
   fun:unmap_image
   fun:_ZN4dyldL18notifyBatchPartialE17dyld_image_statesbPFPKcS0_jPK15dyld_image_infoEbb
   fun:_ZN4dyld21registerObjCNotifiersEPFvjPKPKcPKPK11mach_headerEPFvS1_S6_ESC_
   fun:_dyld_objc_notify_register
   fun:map_images_nolock
   fun:_os_object_init
   fun:libdispatch_init
}
{
   <mlx_suppression_rule_296>
   Memcheck:Leak
   match-leak-kinds: indirect
   fun:malloc
   fun:_ZL24realizeClassWithoutSwiftP10objc_classS0_
   fun:_ZL32adjustCustomFlagsForMethodChangeP10objc_classP8method_t
   fun:property_copyAttributeValue
   fun:_ZL10free_classP10objc_class
   fun:objc_msgLookup
   fun:_ZN4dyldL12notifySingleE17dyld_image_statesPK11ImageLoaderPNS1_21InitializerTimingListE
   fun:_ZN11ImageLoader23recursiveInitializationERKNS_11LinkContextEjPKcRNS_21InitializerTimingListERNS_15UninitedUpwardsE
   fun:_ZN11ImageLoader19processInitializersERKNS_11LinkContextEjRNS_21InitializerTimingListERNS_15UninitedUpwardsE
   fun:_ZN11ImageLoader19processInitializersERKNS_11LinkContextEjRNS_21InitializerTimingListERNS_15UninitedUpwardsE
   fun:_ZN11ImageLoader15runInitializersERKNS_11LinkContextERNS_21InitializerTimingListE
   fun:_ZN4dyld24initializeMainExecutableEv
}
{
   <mlx_suppression_rule_297>
   Memcheck:Leak
   match-leak-kinds: definite
   fun:calloc
   fun:_ZN4objc8DenseMapIP10objc_classS2_NS_17DenseMapValueInfoIS2_EENS_12DenseMapInfoIS2_EENS_6detail12DenseMapPairIS2_S2_EEE4growEj
   fun:_ZL16addRemappedClassP10objc_classS0_
   fun:objc_initializeClassPair
   fun:objc_registerClassPair
   fun:__CFStringCreateImmutableFunnel3
   fun:__CFInitialize
   fun:_ZN16ImageLoaderMachO11doImageInitERKN11ImageLoader11LinkContextE
   fun:_ZN16ImageLoaderMachO16doInitializationERKN11ImageLoader11LinkContextE
   fun:_ZN11ImageLoader23recursiveInitializationERKNS_11LinkContextEjPKcRNS_21InitializerTimingListERNS_15UninitedUpwardsE
   fun:_ZN11ImageLoader23recursiveInitializationERKNS_11LinkContextEjPKcRNS_21InitializerTimingListERNS_15UninitedUpwardsE
   fun:_ZN11ImageLoader23recursiveInitializationERKNS_11LinkContextEjPKcRNS_21InitializerTimingListERNS_15UninitedUpwardsE
}
{
   <mlx_suppression_rule_298>
   Memcheck:Leak
   match-leak-kinds: reachable
   fun:calloc
   fun:_ZL12read_addressPmPK14dwarf_eh_basesh
   fun:weak_register_no_lock
   fun:-[NSThread init]
   fun:____NSThreads_block_invoke
   fun:_dispatch_client_callout
   fun:_dispatch_once_callout
   fun:_NSThreadGet0
   fun:_NSInitializePlatform
   fun:objc_msgLookup_fpret
   fun:_ZN4dyldL12notifySingleE17dyld_image_statesPK11ImageLoaderPNS1_21InitializerTimingListE
   fun:_ZN11ImageLoader23recursiveInitializationERKNS_11LinkContextEjPKcRNS_21InitializerTimingListERNS_15UninitedUpwardsE
}
{
   <mlx_suppression_rule_299>
   Memcheck:Leak
   match-leak-kinds: definite
   fun:calloc
   fun:_ZN4objc8DenseMapIP10objc_classS2_NS_17DenseMapValueInfoIS2_EENS_12DenseMapInfoIS2_EENS_6detail12DenseMapPairIS2_S2_EEE4growEj
   fun:_ZN10objc_class11mangledNameEv
   fun:_ZN10objc_class11mangledNameEv
   fun:_ZN10objc_class11mangledNameEv
   fun:_ZL16addRemappedClassP10objc_classS0_
   fun:objc_initializeClassPair
   fun:objc_registerClassPair
   fun:__CFStringCreateImmutableFunnel3
   fun:__CFInitialize
   fun:_ZN16ImageLoaderMachO11doImageInitERKN11ImageLoader11LinkContextE
   fun:_ZN16ImageLoaderMachO16doInitializationERKN11ImageLoader11LinkContextE
}
{
   <mlx_suppression_rule_300>
   Memcheck:Leak
   match-leak-kinds: definite
   fun:calloc
   fun:_ZN4objc8DenseMapIP10objc_classS2_NS_17DenseMapValueInfoIS2_EENS_12DenseMapInfoIS2_EENS_6detail12DenseMapPairIS2_S2_EEE4growEj
   fun:_ZN10objc_class11mangledNameEv
   fun:_ZN10objc_class11mangledNameEv
   fun:_ZL16addRemappedClassP10objc_classS0_
   fun:objc_initializeClassPair
   fun:_NSToDoAtProcessStart
   fun:_NSInitializePlatform
   fun:objc_msgLookup_fpret
   fun:_ZN4dyldL12notifySingleE17dyld_image_statesPK11ImageLoaderPNS1_21InitializerTimingListE
   fun:_ZN11ImageLoader23recursiveInitializationERKNS_11LinkContextEjPKcRNS_21InitializerTimingListERNS_15UninitedUpwardsE
   fun:_ZN11ImageLoader23recursiveInitializationERKNS_11LinkContextEjPKcRNS_21InitializerTimingListERNS_15UninitedUpwardsE
}
{
   <mlx_suppression_rule_301>
   Memcheck:Leak
   match-leak-kinds: definite
   fun:calloc
   fun:_ZN4objc8DenseMapIP10objc_classS2_NS_17DenseMapValueInfoIS2_EENS_12DenseMapInfoIS2_EENS_6detail12DenseMapPairIS2_S2_EEE4growEj
   fun:_ZN10objc_class11mangledNameEv
   fun:_ZL16addRemappedClassP10objc_classS0_
   fun:objc_initializeClassPair
   fun:_NSToDoAtProcessStart
   fun:_NSInitializePlatform
   fun:objc_msgLookup_fpret
   fun:_ZN4dyldL12notifySingleE17dyld_image_statesPK11ImageLoaderPNS1_21InitializerTimingListE
   fun:_ZN11ImageLoader23recursiveInitializationERKNS_11LinkContextEjPKcRNS_21InitializerTimingListERNS_15UninitedUpwardsE
   fun:_ZN11ImageLoader23recursiveInitializationERKNS_11LinkContextEjPKcRNS_21InitializerTimingListERNS_15UninitedUpwardsE
   fun:_ZN11ImageLoader23recursiveInitializationERKNS_11LinkContextEjPKcRNS_21InitializerTimingListERNS_15UninitedUpwardsE
}
{
   <mlx_suppression_rule_302>
   Memcheck:Leak
   match-leak-kinds: definite
   fun:calloc
   fun:_ZN4objc8DenseMapIP10objc_classS2_NS_17DenseMapValueInfoIS2_EENS_12DenseMapInfoIS2_EENS_6detail12DenseMapPairIS2_S2_EEE4growEj
   fun:_ZN10objc_class11mangledNameEv
   fun:_ZL16addRemappedClassP10objc_classS0_
   fun:objc_initializeClassPair
   fun:_NSToDoAtProcessStart
   fun:_NSInitializePlatform
   fun:objc_msgLookup_fpret
   fun:_ZN4dyldL12notifySingleE17dyld_image_statesPK11ImageLoaderPNS1_21InitializerTimingListE
   fun:_ZN11ImageLoader23recursiveInitializationERKNS_11LinkContextEjPKcRNS_21InitializerTimingListERNS_15UninitedUpwardsE
   fun:_ZN11ImageLoader23recursiveInitializationERKNS_11LinkContextEjPKcRNS_21InitializerTimingListERNS_15UninitedUpwardsE
   fun:_ZN11ImageLoader23recursiveInitializationERKNS_11LinkContextEjPKcRNS_21InitializerTimingListERNS_15UninitedUpwardsE
}
{
   <mlx_suppression_rule_303>
   Memcheck:Leak
   match-leak-kinds: reachable
   fun:malloc
   fun:LI_ils_create
   fun:_extract_user_dict
   fun:_extract_user
   fun:_ds_item
   fun:ds_user_byuid
   fun:si_user_byuid
   fun:search_item_bynumber
   fun:search_user_byuid
   fun:si_user_byuid
   fun:getpwuid_r
   fun:__CFgetenv
}
{
   <mlx_suppression_rule_304>
   Memcheck:Leak
   match-leak-kinds: definite
   fun:calloc
   fun:_ZN4objc8DenseMapIP10objc_classS2_NS_17DenseMapValueInfoIS2_EENS_12DenseMapInfoIS2_EENS_6detail12DenseMapPairIS2_S2_EEE4growEj
   fun:_ZL16addRemappedClassP10objc_classS0_
   fun:objc_initializeClassPair
   fun:_NSToDoAtProcessStart
   fun:_NSInitializePlatform
   fun:objc_msgLookup_fpret
   fun:_ZN4dyldL12notifySingleE17dyld_image_statesPK11ImageLoaderPNS1_21InitializerTimingListE
   fun:_ZN11ImageLoader23recursiveInitializationERKNS_11LinkContextEjPKcRNS_21InitializerTimingListERNS_15UninitedUpwardsE
   fun:_ZN11ImageLoader23recursiveInitializationERKNS_11LinkContextEjPKcRNS_21InitializerTimingListERNS_15UninitedUpwardsE
   fun:_ZN11ImageLoader23recursiveInitializationERKNS_11LinkContextEjPKcRNS_21InitializerTimingListERNS_15UninitedUpwardsE
   fun:_ZN11ImageLoader23recursiveInitializationERKNS_11LinkContextEjPKcRNS_21InitializerTimingListERNS_15UninitedUpwardsE
}
{
   <mlx_suppression_rule_305>
   Memcheck:Leak
   match-leak-kinds: indirect
   fun:malloc
   fun:_ZL24realizeClassWithoutSwiftP10objc_classS0_
   fun:_ZL32adjustCustomFlagsForMethodChangeP10objc_classP8method_t
   fun:property_copyAttributeValue
   fun:_ZL10free_classP10objc_class
   fun:objc_msgLookup
   fun:_ZN4dyldL12notifySingleE17dyld_image_statesPK11ImageLoaderPNS1_21InitializerTimingListE
   fun:_ZN11ImageLoader23recursiveInitializationERKNS_11LinkContextEjPKcRNS_21InitializerTimingListERNS_15UninitedUpwardsE
   fun:_ZN11ImageLoader19processInitializersERKNS_11LinkContextEjRNS_21InitializerTimingListERNS_15UninitedUpwardsE
   fun:_ZN11ImageLoader19processInitializersERKNS_11LinkContextEjRNS_21InitializerTimingListERNS_15UninitedUpwardsE
   fun:_ZN11ImageLoader15runInitializersERKNS_11LinkContextERNS_21InitializerTimingListE
   fun:_ZN4dyld24initializeMainExecutableEv
}
{
   <mlx_suppression_rule_306>
   Memcheck:Leak
   match-leak-kinds: definite
   fun:calloc
   fun:_ZN4objc8DenseMapIP10objc_classS2_NS_17DenseMapValueInfoIS2_EENS_12DenseMapInfoIS2_EENS_6detail12DenseMapPairIS2_S2_EEE4growEj
   fun:_ZN10objc_class11mangledNameEv
   fun:_ZN10objc_class11mangledNameEv
   fun:_ZL16addRemappedClassP10objc_classS0_
   fun:objc_initializeClassPair
   fun:objc_registerClassPair
   fun:__CFStringCreateImmutableFunnel3
   fun:__CFInitialize
   fun:_ZN16ImageLoaderMachO11doImageInitERKN11ImageLoader11LinkContextE
   fun:_ZN16ImageLoaderMachO16doInitializationERKN11ImageLoader11LinkContextE
   fun:_ZN11ImageLoader23recursiveInitializationERKNS_11LinkContextEjPKcRNS_21InitializerTimingListERNS_15UninitedUpwardsE
}
{
   <mlx_suppression_rule_307>
   Memcheck:Leak
   match-leak-kinds: definite
   fun:calloc
   fun:_ZN4objc8DenseMapIP10objc_classS2_NS_17DenseMapValueInfoIS2_EENS_12DenseMapInfoIS2_EENS_6detail12DenseMapPairIS2_S2_EEE4growEj
   fun:_ZL16addRemappedClassP10objc_classS0_
   fun:objc_initializeClassPair
   fun:objc_registerClassPair
   fun:__CFStringCreateImmutableFunnel3
   fun:__CFInitialize
   fun:_ZN16ImageLoaderMachO11doImageInitERKN11ImageLoader11LinkContextE
   fun:_ZN16ImageLoaderMachO16doInitializationERKN11ImageLoader11LinkContextE
   fun:_ZN11ImageLoader23recursiveInitializationERKNS_11LinkContextEjPKcRNS_21InitializerTimingListERNS_15UninitedUpwardsE
   fun:_ZN11ImageLoader23recursiveInitializationERKNS_11LinkContextEjPKcRNS_21InitializerTimingListERNS_15UninitedUpwardsE
   fun:_ZN11ImageLoader23recursiveInitializationERKNS_11LinkContextEjPKcRNS_21InitializerTimingListERNS_15UninitedUpwardsE
}
{
   <mlx_suppression_rule_308>
   Memcheck:Leak
   match-leak-kinds: reachable
   fun:calloc
   fun:notify_dump_status
   fun:notify_dump_status
   fun:_notify_fork_child
   fun:_notify_fork_child
   fun:notify_register_check
   fun:__si_module_static_ds_block_invoke
   fun:_dispatch_client_callout
   fun:_dispatch_once_callout
   fun:si_module_static_ds
   fun:si_module_with_name
   fun:si_module_config_modules_for_category
}
{
   <mlx_suppression_rule_309>
   Memcheck:Leak
   match-leak-kinds: reachable
   fun:calloc
   fun:notify_dump_status
   fun:notify_monitor_file
   fun:_notify_fork_child
   fun:notify_register_check
   fun:__si_module_static_ds_block_invoke
   fun:_dispatch_client_callout
   fun:_dispatch_once_callout
   fun:si_module_static_ds
   fun:si_module_with_name
   fun:si_module_config_modules_for_category
   fun:__si_module_static_search_block_invoke
}
{
   <mlx_suppression_rule_310>
   Memcheck:Leak
   match-leak-kinds: reachable
   fun:malloc
   fun:_ZL10free_classP10objc_class
   fun:_ZL12detach_classP10objc_classb
   fun:_ZN4objc20UnattachedCategories11addForClassE21locstamped_category_tP10objc_class
   fun:+[NSObject new]
   fun:CFBasicHashCreate
   fun:_CFStringGetUserDefaultEncoding
   fun:_ZN16ImageLoaderMachO11doImageInitERKN11ImageLoader11LinkContextE
   fun:_ZN16ImageLoaderMachO16doInitializationERKN11ImageLoader11LinkContextE
   fun:_ZN11ImageLoader23recursiveInitializationERKNS_11LinkContextEjPKcRNS_21InitializerTimingListERNS_15UninitedUpwardsE
   fun:_ZN11ImageLoader23recursiveInitializationERKNS_11LinkContextEjPKcRNS_21InitializerTimingListERNS_15UninitedUpwardsE
   fun:_ZN11ImageLoader23recursiveInitializationERKNS_11LinkContextEjPKcRNS_21InitializerTimingListERNS_15UninitedUpwardsE
}
{
   <mlx_suppression_rule_311>
   Memcheck:Leak
   match-leak-kinds: reachable
   fun:realloc
   fun:reallocf
   fun:_ZL27protocol_getProperty_nolockP10protocol_tPKcbb
   fun:_method_getImplementationAndName
   fun:_ZL10free_classP10objc_class
   fun:objc_msgLookup
   fun:_ZN4dyldL12notifySingleE17dyld_image_statesPK11ImageLoaderPNS1_21InitializerTimingListE
   fun:_ZN11ImageLoader23recursiveInitializationERKNS_11LinkContextEjPKcRNS_21InitializerTimingListERNS_15UninitedUpwardsE
   fun:_ZN11ImageLoader19processInitializersERKNS_11LinkContextEjRNS_21InitializerTimingListERNS_15UninitedUpwardsE
   fun:_ZN11ImageLoader19processInitializersERKNS_11LinkContextEjRNS_21InitializerTimingListERNS_15UninitedUpwardsE
   fun:_ZN11ImageLoader15runInitializersERKNS_11LinkContextERNS_21InitializerTimingListE
   fun:_ZN4dyld24initializeMainExecutableEv
}
{
   <mlx_suppression_rule_312>
   Memcheck:Leak
   match-leak-kinds: definite
   fun:calloc
   fun:_ZN4objc8DenseMapIP10objc_classS2_NS_17DenseMapValueInfoIS2_EENS_12DenseMapInfoIS2_EENS_6detail12DenseMapPairIS2_S2_EEE4growEj
   fun:_ZN10objc_class11mangledNameEv
   fun:_ZL16addRemappedClassP10objc_classS0_
   fun:objc_initializeClassPair
   fun:_NSToDoAtProcessStart
   fun:_NSInitializePlatform
   fun:objc_msgLookup_fpret
   fun:_ZN4dyldL12notifySingleE17dyld_image_statesPK11ImageLoaderPNS1_21InitializerTimingListE
   fun:_ZN11ImageLoader23recursiveInitializationERKNS_11LinkContextEjPKcRNS_21InitializerTimingListERNS_15UninitedUpwardsE
   fun:_ZN11ImageLoader23recursiveInitializationERKNS_11LinkContextEjPKcRNS_21InitializerTimingListERNS_15UninitedUpwardsE
   fun:_ZN11ImageLoader23recursiveInitializationERKNS_11LinkContextEjPKcRNS_21InitializerTimingListERNS_15UninitedUpwardsE
}
{
   <mlx_suppression_rule_311>
   Memcheck:Leak
   match-leak-kinds: reachable
   fun:malloc
   fun:protocol_getProperty
   fun:_method_getImplementationAndName
   fun:_ZL10free_classP10objc_class
   fun:objc_msgLookup
   fun:_ZN4dyldL12notifySingleE17dyld_image_statesPK11ImageLoaderPNS1_21InitializerTimingListE
   fun:_ZN11ImageLoader23recursiveInitializationERKNS_11LinkContextEjPKcRNS_21InitializerTimingListERNS_15UninitedUpwardsE
   fun:_ZN11ImageLoader19processInitializersERKNS_11LinkContextEjRNS_21InitializerTimingListERNS_15UninitedUpwardsE
   fun:_ZN11ImageLoader19processInitializersERKNS_11LinkContextEjRNS_21InitializerTimingListERNS_15UninitedUpwardsE
   fun:_ZN11ImageLoader15runInitializersERKNS_11LinkContextERNS_21InitializerTimingListE
   fun:_ZN4dyld24initializeMainExecutableEv
   fun:_ZN4dyld5_mainEPK12macho_headermiPPKcS5_S5_Pm
}
{
   <mlx_suppression_rule_313>
   Memcheck:Leak
   match-leak-kinds: definite
   fun:calloc
   fun:_ZN4objc8DenseMapIP10objc_classS2_NS_17DenseMapValueInfoIS2_EENS_12DenseMapInfoIS2_EENS_6detail12DenseMapPairIS2_S2_EEE4growEj
   fun:_ZN10objc_class11mangledNameEv
   fun:_ZN10objc_class11mangledNameEv
   fun:_ZN10objc_class11mangledNameEv
   fun:_ZNK8objc_opt17objc_stringhash_t8getIndexEPKc
   fun:unmap_image
   fun:_ZN4dyldL18notifyBatchPartialE17dyld_image_statesbPFPKcS0_jPK15dyld_image_infoEbb
   fun:_ZN4dyld21registerObjCNotifiersEPFvjPKPKcPKPK11mach_headerEPFvS1_S6_ESC_
   fun:_dyld_objc_notify_register
   fun:map_images_nolock
   fun:_os_object_init
}
{
   <mlx_suppression_rule_314>
   Memcheck:Leak
   match-leak-kinds: definite
   fun:calloc
   fun:_ZN4objc8DenseMapIP10objc_classS2_NS_17DenseMapValueInfoIS2_EENS_12DenseMapInfoIS2_EENS_6detail12DenseMapPairIS2_S2_EEE4growEj
   fun:_ZN10objc_class11mangledNameEv
   fun:_ZN10objc_class11mangledNameEv
   fun:_ZNK8objc_opt17objc_stringhash_t8getIndexEPKc
   fun:unmap_image
   fun:_ZN4dyldL18notifyBatchPartialE17dyld_image_statesbPFPKcS0_jPK15dyld_image_infoEbb
   fun:_ZN4dyld21registerObjCNotifiersEPFvjPKPKcPKPK11mach_headerEPFvS1_S6_ESC_
   fun:_dyld_objc_notify_register
   fun:map_images_nolock
   fun:_os_object_init
   fun:libdispatch_init
}
{
   <mlx_suppression_rule_315>
   Memcheck:Leak
   match-leak-kinds: reachable
   fun:calloc
   fun:__si_module_static_search_block_invoke
   fun:_dispatch_client_callout
   fun:_dispatch_once_callout
   fun:si_module_static_search
   fun:si_module_with_name
   fun:si_search
   fun:getpwuid_r
   fun:__CFgetenv
   fun:__CFInitialize
   fun:_ZN16ImageLoaderMachO11doImageInitERKN11ImageLoader11LinkContextE
   fun:_ZN16ImageLoaderMachO16doInitializationERKN11ImageLoader11LinkContextE
}
{
   <mlx_suppression_rule_316>
   Memcheck:Leak
   match-leak-kinds: definite
   fun:malloc_zone_malloc
   fun:__CFMakeNSBlockClasses
   fun:__CFSetCharToUniCharFunc
   fun:__CFSetCharToUniCharFunc
   fun:_CFStringGetUserDefaultEncoding
   fun:_ZN16ImageLoaderMachO11doImageInitERKN11ImageLoader11LinkContextE
   fun:_ZN16ImageLoaderMachO16doInitializationERKN11ImageLoader11LinkContextE
   fun:_ZN11ImageLoader23recursiveInitializationERKNS_11LinkContextEjPKcRNS_21InitializerTimingListERNS_15UninitedUpwardsE
   fun:_ZN11ImageLoader23recursiveInitializationERKNS_11LinkContextEjPKcRNS_21InitializerTimingListERNS_15UninitedUpwardsE
   fun:_ZN11ImageLoader23recursiveInitializationERKNS_11LinkContextEjPKcRNS_21InitializerTimingListERNS_15UninitedUpwardsE
   fun:_ZN11ImageLoader23recursiveInitializationERKNS_11LinkContextEjPKcRNS_21InitializerTimingListERNS_15UninitedUpwardsE
   fun:_ZN11ImageLoader23recursiveInitializationERKNS_11LinkContextEjPKcRNS_21InitializerTimingListERNS_15UninitedUpwardsE
}
{
   <mlx_suppression_rule_317>
   Memcheck:Leak
   match-leak-kinds: definite
   fun:malloc
   fun:_NSInitializePlatform
   fun:objc_msgLookup_fpret
   fun:_ZN4dyldL12notifySingleE17dyld_image_statesPK11ImageLoaderPNS1_21InitializerTimingListE
   fun:_ZN11ImageLoader23recursiveInitializationERKNS_11LinkContextEjPKcRNS_21InitializerTimingListERNS_15UninitedUpwardsE
   fun:_ZN11ImageLoader23recursiveInitializationERKNS_11LinkContextEjPKcRNS_21InitializerTimingListERNS_15UninitedUpwardsE
   fun:_ZN11ImageLoader23recursiveInitializationERKNS_11LinkContextEjPKcRNS_21InitializerTimingListERNS_15UninitedUpwardsE
   fun:_ZN11ImageLoader23recursiveInitializationERKNS_11LinkContextEjPKcRNS_21InitializerTimingListERNS_15UninitedUpwardsE
   fun:_ZN11ImageLoader23recursiveInitializationERKNS_11LinkContextEjPKcRNS_21InitializerTimingListERNS_15UninitedUpwardsE
   fun:_ZN11ImageLoader23recursiveInitializationERKNS_11LinkContextEjPKcRNS_21InitializerTimingListERNS_15UninitedUpwardsE
   fun:_ZN11ImageLoader19processInitializersERKNS_11LinkContextEjRNS_21InitializerTimingListERNS_15UninitedUpwardsE
   fun:_ZN11ImageLoader15runInitializersERKNS_11LinkContextERNS_21InitializerTimingListE
}
{
   <mlx_suppression_rule_318>
   Memcheck:Leak
   match-leak-kinds: indirect
   fun:calloc
   fun:_ZL33realizeClassMaybeSwiftMaybeRelockP10objc_classR8mutex_ttILb0EEb
   fun:_ZL32adjustCustomFlagsForMethodChangeP10objc_classP8method_t
   fun:property_copyAttributeValue
   fun:_ZL10free_classP10objc_class
   fun:objc_msgLookup
   fun:_ZN4dyldL12notifySingleE17dyld_image_statesPK11ImageLoaderPNS1_21InitializerTimingListE
   fun:_ZN11ImageLoader23recursiveInitializationERKNS_11LinkContextEjPKcRNS_21InitializerTimingListERNS_15UninitedUpwardsE
   fun:_ZN11ImageLoader19processInitializersERKNS_11LinkContextEjRNS_21InitializerTimingListERNS_15UninitedUpwardsE
   fun:_ZN11ImageLoader19processInitializersERKNS_11LinkContextEjRNS_21InitializerTimingListERNS_15UninitedUpwardsE
   fun:_ZN11ImageLoader15runInitializersERKNS_11LinkContextERNS_21InitializerTimingListE
   fun:_ZN4dyld24initializeMainExecutableEv
}
{
   <mlx_suppression_rule_319>
   Memcheck:Leak
   match-leak-kinds: indirect
   fun:malloc
   fun:_ZL24realizeClassWithoutSwiftP10objc_classS0_
   fun:_ZL32adjustCustomFlagsForMethodChangeP10objc_classP8method_t
   fun:property_copyAttributeValue
   fun:_ZL10free_classP10objc_class
   fun:objc_msgLookup
   fun:_ZN4dyldL12notifySingleE17dyld_image_statesPK11ImageLoaderPNS1_21InitializerTimingListE
   fun:_ZN11ImageLoader23recursiveInitializationERKNS_11LinkContextEjPKcRNS_21InitializerTimingListERNS_15UninitedUpwardsE
   fun:_ZN11ImageLoader19processInitializersERKNS_11LinkContextEjRNS_21InitializerTimingListERNS_15UninitedUpwardsE
   fun:_ZN11ImageLoader19processInitializersERKNS_11LinkContextEjRNS_21InitializerTimingListERNS_15UninitedUpwardsE
   fun:_ZN11ImageLoader15runInitializersERKNS_11LinkContextERNS_21InitializerTimingListE
   fun:_ZN4dyld24initializeMainExecutableEv
}
{
   <mlx_suppression_rule_3202>
   Memcheck:Leak
   match-leak-kinds: indirect
   fun:calloc
   fun:_ZL33realizeClassMaybeSwiftMaybeRelockP10objc_classR8mutex_ttILb0EEb
   fun:_ZL32adjustCustomFlagsForMethodChangeP10objc_classP8method_t
   fun:property_copyAttributeValue
   fun:_ZL10free_classP10objc_class
   fun:objc_msgLookup
   fun:_ZN4dyldL12notifySingleE17dyld_image_statesPK11ImageLoaderPNS1_21InitializerTimingListE
   fun:_ZN11ImageLoader23recursiveInitializationERKNS_11LinkContextEjPKcRNS_21InitializerTimingListERNS_15UninitedUpwardsE
   fun:_ZN11ImageLoader19processInitializersERKNS_11LinkContextEjRNS_21InitializerTimingListERNS_15UninitedUpwardsE
   fun:_ZN11ImageLoader19processInitializersERKNS_11LinkContextEjRNS_21InitializerTimingListERNS_15UninitedUpwardsE
   fun:_ZN11ImageLoader15runInitializersERKNS_11LinkContextERNS_21InitializerTimingListE
   fun:_ZN4dyld24initializeMainExecutableEv
}
{
   <mlx_suppression_rule_321>
   Memcheck:Leak
   match-leak-kinds: definite
   fun:calloc
   fun:_ZN4objc8DenseMapIP10objc_classS2_NS_17DenseMapValueInfoIS2_EENS_12DenseMapInfoIS2_EENS_6detail12DenseMapPairIS2_S2_EEE4growEj
   fun:_ZN10objc_class11mangledNameEv
   fun:_ZNK8objc_opt17objc_stringhash_t8getIndexEPKc
   fun:unmap_image
   fun:_ZN4dyldL18notifyBatchPartialE17dyld_image_statesbPFPKcS0_jPK15dyld_image_infoEbb
   fun:_ZN4dyld21registerObjCNotifiersEPFvjPKPKcPKPK11mach_headerEPFvS1_S6_ESC_
   fun:_dyld_objc_notify_register
   fun:map_images_nolock
   fun:_os_object_init
   fun:libdispatch_init
   fun:libSystem_initializer
}
{
   <mlx_suppression_rule_322>
   Memcheck:Leak
   match-leak-kinds: definite
   fun:calloc
   fun:_ZN4objc8DenseMapIP10objc_classS2_NS_17DenseMapValueInfoIS2_EENS_12DenseMapInfoIS2_EENS_6detail12DenseMapPairIS2_S2_EEE4growEj
   fun:_ZNK8objc_opt17objc_stringhash_t8getIndexEPKc
   fun:unmap_image
   fun:_ZN4dyldL18notifyBatchPartialE17dyld_image_statesbPFPKcS0_jPK15dyld_image_infoEbb
   fun:_ZN4dyld21registerObjCNotifiersEPFvjPKPKcPKPK11mach_headerEPFvS1_S6_ESC_
   fun:_dyld_objc_notify_register
   fun:map_images_nolock
   fun:_os_object_init
   fun:libdispatch_init
   fun:libSystem_initializer
   fun:_ZN16ImageLoaderMachO18doModInitFunctionsERKN11ImageLoader11LinkContextE
}
{
   <mlx_suppression_rule_323>
   Memcheck:Leak
   match-leak-kinds: definite
   fun:calloc
   fun:_ZN4objc8DenseMapIP10objc_classS2_NS_17DenseMapValueInfoIS2_EENS_12DenseMapInfoIS2_EENS_6detail12DenseMapPairIS2_S2_EEE4growEj
   fun:_ZN10objc_class11mangledNameEv
   fun:_ZN10objc_class11mangledNameEv
   fun:_ZNK8objc_opt17objc_stringhash_t8getIndexEPKc
   fun:unmap_image
   fun:_ZN4dyldL18notifyBatchPartialE17dyld_image_statesbPFPKcS0_jPK15dyld_image_infoEbb
   fun:_ZN4dyld21registerObjCNotifiersEPFvjPKPKcPKPK11mach_headerEPFvS1_S6_ESC_
   fun:_dyld_objc_notify_register
   fun:map_images_nolock
   fun:_os_object_init
   fun:libdispatch_init
}
{
   <mlx_suppression_rule_324>
   Memcheck:Leak
   match-leak-kinds: reachable
   fun:malloc
   fun:_ZL11weak_resizeP12weak_table_tm
   fun:_ZN11objc_object27sidetable_clearDeallocatingEv
   fun:_ZL19_finishInitializingP10objc_classS0_
   fun:lookUpImpOrForward
   fun:_li_auto_os_release
   fun:ds_user_byuid
   fun:si_user_byuid
   fun:search_item_bynumber
   fun:search_user_byuid
   fun:si_user_byuid
   fun:getpwuid_r
}
{
   <mlx_suppression_rule_3>
   Memcheck:Leak
   match-leak-kinds: reachable
   fun:calloc
   fun:CFBasicHashCreate
   fun:CFBasicHashCreate
   fun:_NSThreadGet0
   fun:_NSInitializePlatform
   fun:objc_msgLookup_fpret
   fun:_ZN4dyldL12notifySingleE17dyld_image_statesPK11ImageLoaderPNS1_21InitializerTimingListE
   fun:_ZN11ImageLoader23recursiveInitializationERKNS_11LinkContextEjPKcRNS_21InitializerTimingListERNS_15UninitedUpwardsE
   fun:_ZN11ImageLoader23recursiveInitializationERKNS_11LinkContextEjPKcRNS_21InitializerTimingListERNS_15UninitedUpwardsE
   fun:_ZN11ImageLoader23recursiveInitializationERKNS_11LinkContextEjPKcRNS_21InitializerTimingListERNS_15UninitedUpwardsE
   fun:_ZN11ImageLoader23recursiveInitializationERKNS_11LinkContextEjPKcRNS_21InitializerTimingListERNS_15UninitedUpwardsE
   fun:_ZN11ImageLoader23recursiveInitializationERKNS_11LinkContextEjPKcRNS_21InitializerTimingListERNS_15UninitedUpwardsE
}
{
   <mlx_suppression_rule_325>
   Memcheck:Leak
   match-leak-kinds: definite
   fun:calloc
   fun:_ZN4objc8DenseMapIP10objc_classS2_NS_17DenseMapValueInfoIS2_EENS_12DenseMapInfoIS2_EENS_6detail12DenseMapPairIS2_S2_EEE4growEj
   fun:_ZN10objc_class11mangledNameEv
   fun:_ZNK8objc_opt17objc_stringhash_t8getIndexEPKc
   fun:unmap_image
   fun:_ZN4dyldL18notifyBatchPartialE17dyld_image_statesbPFPKcS0_jPK15dyld_image_infoEbb
   fun:_ZN4dyld21registerObjCNotifiersEPFvjPKPKcPKPK11mach_headerEPFvS1_S6_ESC_
   fun:_dyld_objc_notify_register
   fun:map_images_nolock
   fun:_os_object_init
   fun:libdispatch_init
   fun:libSystem_initializer
}
{
   <mlx_suppression_rule_326>
   Memcheck:Leak
   match-leak-kinds: definite
   fun:malloc
   fun:__NSDictionaryM_new
   fun:_dispatch_client_callout
   fun:_dispatch_once_callout
   fun:__NSDictionaryM_new
   fun:+[NSDictionary allocWithZone:]
   fun:CFBasicHashGetPtrIndex
   fun:CFBasicHashCreate
   fun:____NSThreads_block_invoke
   fun:_dispatch_client_callout
   fun:_dispatch_once_callout
   fun:_NSThreadGet0
}
{
   <mlx_suppression_rule_327>
   Memcheck:Leak
   match-leak-kinds: reachable
   fun:calloc
   fun:__si_module_static_cache_block_invoke
   fun:_dispatch_client_callout
   fun:_dispatch_once_callout
   fun:si_module_static_cache
   fun:si_module_with_name
   fun:si_module_config_modules_for_category
   fun:__si_module_static_search_block_invoke
   fun:_dispatch_client_callout
   fun:_dispatch_once_callout
   fun:si_module_static_search
   fun:si_module_with_name
}
{
   <mlx_suppression_rule_328>
   Memcheck:Leak
   match-leak-kinds: reachable
   fun:malloc
   fun:_ZN4objc7scanner5MixinINS_11CoreScannerELNS_14SelectorBundleE2EL_Z15PrintCustomCoreELNS0_5ScopeE2EE20setCustomRecursivelyEP10objc_classb
   fun:protocol_copyPropertyList2
   fun:_method_getImplementationAndName
   fun:_ZL10free_classP10objc_class
   fun:objc_msgLookup
   fun:_ZN4dyldL12notifySingleE17dyld_image_statesPK11ImageLoaderPNS1_21InitializerTimingListE
   fun:_ZN11ImageLoader23recursiveInitializationERKNS_11LinkContextEjPKcRNS_21InitializerTimingListERNS_15UninitedUpwardsE
   fun:_ZN11ImageLoader19processInitializersERKNS_11LinkContextEjRNS_21InitializerTimingListERNS_15UninitedUpwardsE
   fun:_ZN11ImageLoader19processInitializersERKNS_11LinkContextEjRNS_21InitializerTimingListERNS_15UninitedUpwardsE
   fun:_ZN11ImageLoader15runInitializersERKNS_11LinkContextERNS_21InitializerTimingListE
   fun:_ZN4dyld24initializeMainExecutableEv
}
{
   <mlx_suppression_rule_329>
   Memcheck:Leak
   match-leak-kinds: reachable
   fun:calloc
   fun:_os_trace_calloc
   fun:_os_trace_dylib_or_main_executable_was_loaded
   fun:_ZN4dyld19registerAddCallbackEPFvPK11mach_headerlE
   fun:_dyld_register_func_for_add_image
   fun:_os_trace_init_slow
   fun:_dispatch_client_callout
   fun:_dispatch_once_callout
   fun:_os_activity_create_addr
   fun:ds_user_byuid
   fun:si_user_byuid
   fun:search_item_bynumber
}
{
   <mlx_suppression_rule_330>
   Memcheck:Leak
   fun:malloc
   ...
   fun:__CFStringAppendFormatCore
}
{
   <mlx_suppression_rule_331>
   Memcheck:Leak
   fun:calloc
   ...
   fun:_xpc_interface_routine
}
{
   <mlx_suppression_rule_332>
   Memcheck:Leak
   fun:calloc
   ...
   fun:__CFStringAppendFormatCore
}
{
   <mlx_suppression_rule_333>
   Memcheck:Leak
   fun:malloc
   ...
   fun:mlx_init
}
{
   <mlx_suppression_rule_334>
   Memcheck:Leak
   fun:malloc
   ...
   fun:mlx_init
   ...
}
{
   <mlx_suppression_rule_335>
   Memcheck:Leak
   fun:malloc_zone_malloc
   ...
}
{
   <mlx_suppression_rule_336>
   Memcheck:Leak
   fun:malloc
   ...
   fun:xpc_dictionary_set_string
   ...
}
{
   <mlx_suppression_rule_337>
   Memcheck:Leak
   fun:malloc
   ...
   fun:realizeClassWithoutSwift
   ...
}
{
   <mlx_suppression_rule_338>
   Memcheck:Leak
   fun:calloc
   ...
}
{
   <mlx_suppression_rule_339>
   Memcheck:Leak
   fun:malloc
   ...
   fun:attachCategories
   ...
}
{
   <mlx_suppression_rule_340>
   Memcheck:Leak
   fun:malloc
   ...
   fun:lookUpImpOrForward
   ...
}
{
   <mlx_suppression_rule_341>
   Memcheck:Leak
   fun:malloc_zone_calloc
   ...
}
{
   <mlx_suppression_rule_342>
   Memcheck:Leak
   fun:malloc
   ...
   fun:_dispatch_once_callout
   ...
}
{
   <mlx_suppression_rule_343>
   Memcheck:Leak
   fun:malloc
   ...
   fun:generationCountFromListOfSources
   ...
}
{
   <mlx_suppression_rule_344>
   Memcheck:Leak
   fun:malloc_zone_memalign
   ...
}
